	.text
	.file	"stencils.cpp"
	.file	0 "/home/jchang/amd-lab-notes-internal/seismic-stencils/examples" "stencils.cpp" md5 0xc7d12bb07b0244044e3ac09be99be80c
	.file	1 "/usr/lib/gcc/x86_64-redhat-linux/8/../../../../include/c++/8" "iostream"
	.file	2 "." "compare.hpp"
	.file	3 "." "fd_coefficients.hpp"
	.file	4 "." "initialize.hpp"
	.file	5 "stencils.cpp"
	.file	6 "." "helper.hpp"
	.file	7 "." "compute_fd_x.hpp"
	.file	8 "." "compute_fd_x_vec.hpp"
	.file	9 "." "compute_fd_y.hpp"
	.file	10 "." "compute_fd_y_vec.hpp"
	.file	11 "." "compute_fd_y_lds_vec.hpp"
	.file	12 "." "compute_fd_z.hpp"
	.file	13 "." "compute_fd_z_window.hpp"
	.file	14 "." "compute_fd_z_window_vec.hpp"
	.file	15 "." "compute_fd_xy_lds_vec.hpp"
	.file	16 "." "compute_fd_xyz_lds_window_vec.hpp"
	.file	17 "/usr/lib/gcc/x86_64-redhat-linux/8/../../../../include/c++/8/ext" "concurrence.h"
	.file	18 "/opt/rocm-6.1.1/include/hip" "hip_runtime_api.h"
	.file	19 "/opt/rocm-6.1.1/include/hip" "driver_types.h"
	.file	20 "/usr/lib/gcc/x86_64-redhat-linux/8/../../../../include/c++/8/bits" "ios_base.h"
	.file	21 "/opt/rocm-6.1.1/lib/llvm/lib/clang/17/include" "stddef.h"
	.file	22 "/usr/lib/gcc/x86_64-redhat-linux/8/../../../../include/c++/8/x86_64-redhat-linux/bits" "c++config.h"
	.file	23 "/usr/lib/gcc/x86_64-redhat-linux/8/../../../../include/c++/8/bits" "postypes.h"
	.file	24 "/usr/include/bits" "types.h"
	.file	25 "/usr/include/bits" "stdint-uintn.h"
	.file	26 "/opt/rocm-6.1.1/include/hip/amd_detail" "amd_hip_vector_types.h"
	.globl	_Z36__device_stub__max_absval_gpu_kernelPfPKfS1_iiiiiiiii # -- Begin function _Z36__device_stub__max_absval_gpu_kernelPfPKfS1_iiiiiiiii
	.p2align	4, 0x90
	.type	_Z36__device_stub__max_absval_gpu_kernelPfPKfS1_iiiiiiiii,@function
_Z36__device_stub__max_absval_gpu_kernelPfPKfS1_iiiiiiiii: # @_Z36__device_stub__max_absval_gpu_kernelPfPKfS1_iiiiiiiii
.Lfunc_begin0:
	.cfi_startproc
# %bb.0:
	subq	$200, %rsp
	.cfi_def_cfa_offset 208
	movq	%rdi, 88(%rsp)
	movq	%rsi, 80(%rsp)
	movq	%rdx, 72(%rsp)
	movl	%ecx, 20(%rsp)
	movl	%r8d, 16(%rsp)
	movl	%r9d, 12(%rsp)
	leaq	88(%rsp), %rax
	movq	%rax, 96(%rsp)
	leaq	80(%rsp), %rax
	movq	%rax, 104(%rsp)
	leaq	72(%rsp), %rax
	movq	%rax, 112(%rsp)
	leaq	20(%rsp), %rax
	movq	%rax, 120(%rsp)
	leaq	16(%rsp), %rax
	movq	%rax, 128(%rsp)
	leaq	12(%rsp), %rax
	movq	%rax, 136(%rsp)
	leaq	208(%rsp), %rax
	movq	%rax, 144(%rsp)
	leaq	216(%rsp), %rax
	movq	%rax, 152(%rsp)
	leaq	224(%rsp), %rax
	movq	%rax, 160(%rsp)
	leaq	232(%rsp), %rax
	movq	%rax, 168(%rsp)
	leaq	240(%rsp), %rax
	movq	%rax, 176(%rsp)
	leaq	248(%rsp), %rax
	movq	%rax, 184(%rsp)
	leaq	56(%rsp), %rdi
	leaq	40(%rsp), %rsi
	leaq	32(%rsp), %rdx
	leaq	24(%rsp), %rcx
	callq	__hipPopCallConfiguration
	movq	56(%rsp), %rsi
	movl	64(%rsp), %edx
	movq	40(%rsp), %rcx
	movl	48(%rsp), %r8d
	leaq	96(%rsp), %r9
	movl	$_Z21max_absval_gpu_kernelPfPKfS1_iiiiiiiii, %edi
	pushq	24(%rsp)
	.cfi_adjust_cfa_offset 8
	pushq	40(%rsp)
	.cfi_adjust_cfa_offset 8
	callq	hipLaunchKernel
	addq	$216, %rsp
	.cfi_adjust_cfa_offset -216
	retq
.Lfunc_end0:
	.size	_Z36__device_stub__max_absval_gpu_kernelPfPKfS1_iiiiiiiii, .Lfunc_end0-_Z36__device_stub__max_absval_gpu_kernelPfPKfS1_iiiiiiiii
	.cfi_endproc
                                        # -- End function
	.globl	_Z14max_absval_gpuPfPKfiiiiiiiii # -- Begin function _Z14max_absval_gpuPfPKfiiiiiiiii
	.p2align	4, 0x90
	.type	_Z14max_absval_gpuPfPKfiiiiiiiii,@function
_Z14max_absval_gpuPfPKfiiiiiiiii:       # @_Z14max_absval_gpuPfPKfiiiiiiiii
.Lfunc_begin1:
	.loc	2 45 0                          # ./compare.hpp:45:0
	.cfi_startproc
# %bb.0:                                # %_Z4ceilii.exit30
	#DEBUG_VALUE: max_absval_gpu:u <- $rdi
	#DEBUG_VALUE: max_absval_gpu:v <- $rsi
	#DEBUG_VALUE: max_absval_gpu:line <- $edx
	#DEBUG_VALUE: max_absval_gpu:slice <- $ecx
	#DEBUG_VALUE: max_absval_gpu:x0 <- $r8d
	#DEBUG_VALUE: max_absval_gpu:x1 <- $r9d
	pushq	%rbp
	.cfi_def_cfa_offset 16
	pushq	%r15
	.cfi_def_cfa_offset 24
	pushq	%r14
	.cfi_def_cfa_offset 32
	pushq	%r13
	.cfi_def_cfa_offset 40
	pushq	%r12
	.cfi_def_cfa_offset 48
	pushq	%rbx
	.cfi_def_cfa_offset 56
	subq	$248, %rsp
	.cfi_def_cfa_offset 304
	.cfi_offset %rbx, -56
	.cfi_offset %r12, -48
	.cfi_offset %r13, -40
	.cfi_offset %r14, -32
	.cfi_offset %r15, -24
	.cfi_offset %rbp, -16
.Ltmp0:
	#DEBUG_VALUE: max_absval_gpu:y0 <- [DW_OP_plus_uconst 304] [$rsp+0]
	#DEBUG_VALUE: max_absval_gpu:y1 <- [DW_OP_plus_uconst 312] [$rsp+0]
	#DEBUG_VALUE: max_absval_gpu:z0 <- [DW_OP_plus_uconst 320] [$rsp+0]
	#DEBUG_VALUE: max_absval_gpu:z1 <- [DW_OP_plus_uconst 328] [$rsp+0]
	#DEBUG_VALUE: max_absval_gpu:dimz <- [DW_OP_plus_uconst 336] [$rsp+0]
	movl	%r9d, %ebx
	movl	%r8d, 16(%rsp)                  # 4-byte Spill
.Ltmp1:
	#DEBUG_VALUE: max_absval_gpu:x0 <- [DW_OP_plus_uconst 16] [$rsp+0]
	movl	%ecx, 12(%rsp)                  # 4-byte Spill
.Ltmp2:
	#DEBUG_VALUE: max_absval_gpu:slice <- [DW_OP_plus_uconst 12] [$rsp+0]
	movl	%edx, 8(%rsp)                   # 4-byte Spill
.Ltmp3:
	#DEBUG_VALUE: max_absval_gpu:line <- [DW_OP_plus_uconst 8] [$rsp+0]
	movq	%rsi, 64(%rsp)                  # 8-byte Spill
.Ltmp4:
	#DEBUG_VALUE: max_absval_gpu:v <- [DW_OP_plus_uconst 64] [$rsp+0]
	movq	%rdi, 56(%rsp)                  # 8-byte Spill
.Ltmp5:
	#DEBUG_VALUE: max_absval_gpu:u <- [DW_OP_plus_uconst 56] [$rsp+0]
	movl	328(%rsp), %r14d
	#DEBUG_VALUE: ceil:x <- undef
.Ltmp6:
	#DEBUG_VALUE: ceil:x <- $ebx
	movl	336(%rsp), %eax
.Ltmp7:
	.loc	2 57 12 prologue_end            # ./compare.hpp:57:12
	movl	%r14d, %r15d
	subl	320(%rsp), %r15d
	.loc	2 57 17 is_stmt 0               # ./compare.hpp:57:17
	cmpl	$-1, %eax
	.loc	2 57 12                         # ./compare.hpp:57:12
	cmovnel	%eax, %r15d
.Ltmp8:
	#DEBUG_VALUE: max_absval_gpu:dimz <- $r15d
	#DEBUG_VALUE: max_absval_gpu:block <- [DW_OP_LLVM_fragment 0 32] 64
	#DEBUG_VALUE: max_absval_gpu:block <- [DW_OP_LLVM_fragment 32 32] 34359738432
	#DEBUG_VALUE: max_absval_gpu:block <- [DW_OP_LLVM_fragment 64 32] 1
	#DEBUG_VALUE: max_absval_gpu:grid <- [DW_OP_LLVM_fragment 0 32] 1
	#DEBUG_VALUE: max_absval_gpu:grid <- [DW_OP_LLVM_fragment 32 32] 4294967297
	#DEBUG_VALUE: max_absval_gpu:grid <- [DW_OP_LLVM_fragment 64 32] 1
	#DEBUG_VALUE: ceil:y <- 64
	.loc	2 0 12                          # ./compare.hpp:0:12
	movl	312(%rsp), %r12d
.Ltmp9:
	#DEBUG_VALUE: ceil:x <- $r12d
	.loc	6 69 15 is_stmt 1               # ./helper.hpp:69:15
	leal	-1(%rbx), %eax
	.loc	6 69 20 is_stmt 0               # ./helper.hpp:69:20
	leal	62(%rbx), %r13d
	testl	%eax, %eax
	cmovnsl	%eax, %r13d
.Ltmp10:
	#DEBUG_VALUE: max_absval_gpu:grid <- [DW_OP_constu 4294967296, DW_OP_or, DW_OP_stack_value, DW_OP_LLVM_fragment 0 32] undef
	#DEBUG_VALUE: ceil:y <- 8
	.loc	6 69 15                         # ./helper.hpp:69:15
	leal	-1(%r12), %eax
	.loc	6 69 20                         # ./helper.hpp:69:20
	leal	6(%r12), %ebp
	testl	%eax, %eax
	cmovnsl	%eax, %ebp
.Ltmp11:
	#DEBUG_VALUE: max_absval_gpu:grid <- [DW_OP_LLVM_fragment 32 32] undef
	#DEBUG_VALUE: ceil:x <- $r14d
	#DEBUG_VALUE: ceil:y <- $r15d
	.loc	6 68 28 is_stmt 1               # ./helper.hpp:68:28
	testl	%r15d, %r15d
	.loc	6 68 6 is_stmt 0                # ./helper.hpp:68:6
	jle	.LBB1_11
.Ltmp12:
# %bb.1:                                # %_Z4ceilii.exit31
	#DEBUG_VALUE: max_absval_gpu:u <- [DW_OP_plus_uconst 56] [$rsp+0]
	#DEBUG_VALUE: max_absval_gpu:v <- [DW_OP_plus_uconst 64] [$rsp+0]
	#DEBUG_VALUE: max_absval_gpu:line <- [DW_OP_plus_uconst 8] [$rsp+0]
	#DEBUG_VALUE: max_absval_gpu:slice <- [DW_OP_plus_uconst 12] [$rsp+0]
	#DEBUG_VALUE: max_absval_gpu:x0 <- [DW_OP_plus_uconst 16] [$rsp+0]
	#DEBUG_VALUE: max_absval_gpu:x1 <- $ebx
	#DEBUG_VALUE: max_absval_gpu:y0 <- [DW_OP_plus_uconst 304] [$rsp+0]
	#DEBUG_VALUE: max_absval_gpu:y1 <- [DW_OP_plus_uconst 312] [$rsp+0]
	#DEBUG_VALUE: max_absval_gpu:z0 <- [DW_OP_plus_uconst 320] [$rsp+0]
	#DEBUG_VALUE: max_absval_gpu:z1 <- [DW_OP_plus_uconst 328] [$rsp+0]
	#DEBUG_VALUE: max_absval_gpu:dimz <- $r15d
	#DEBUG_VALUE: max_absval_gpu:block <- [DW_OP_LLVM_fragment 0 32] 64
	#DEBUG_VALUE: max_absval_gpu:block <- [DW_OP_LLVM_fragment 32 32] 34359738432
	#DEBUG_VALUE: max_absval_gpu:block <- [DW_OP_LLVM_fragment 64 32] 1
	#DEBUG_VALUE: max_absval_gpu:grid <- [DW_OP_LLVM_fragment 64 32] 1
	#DEBUG_VALUE: max_absval_gpu:grid <- [DW_OP_LLVM_arg 0, DW_OP_constu 1, DW_OP_minus, DW_OP_LLVM_arg 1, DW_OP_div, DW_OP_plus_uconst 1, DW_OP_stack_value, DW_OP_LLVM_fragment 64 32] $r14d, $r15d
	#DEBUG_VALUE: hipMalloc<float>:devPtr <- $rsp
	#DEBUG_VALUE: hipMalloc<float>:size <- 4
	.loc	6 0 6                           # ./helper.hpp:0:6
	movq	%rsp, %rdi
.Ltmp13:
	.loc	18 8870 12 is_stmt 1            # /opt/rocm-6.1.1/include/hip/hip_runtime_api.h:8870:12
	movl	$4, %esi
	callq	hipMalloc
.Ltmp14:
	.loc	2 67 43                         # ./compare.hpp:67:43
	testl	%eax, %eax
.Ltmp15:
	.loc	2 67 10 is_stmt 0               # ./compare.hpp:67:10
	jne	.LBB1_2
.Ltmp16:
# %bb.3:
	#DEBUG_VALUE: max_absval_gpu:u <- [DW_OP_plus_uconst 56] [$rsp+0]
	#DEBUG_VALUE: max_absval_gpu:v <- [DW_OP_plus_uconst 64] [$rsp+0]
	#DEBUG_VALUE: max_absval_gpu:line <- [DW_OP_plus_uconst 8] [$rsp+0]
	#DEBUG_VALUE: max_absval_gpu:slice <- [DW_OP_plus_uconst 12] [$rsp+0]
	#DEBUG_VALUE: max_absval_gpu:x0 <- [DW_OP_plus_uconst 16] [$rsp+0]
	#DEBUG_VALUE: max_absval_gpu:x1 <- $ebx
	#DEBUG_VALUE: max_absval_gpu:y0 <- [DW_OP_plus_uconst 304] [$rsp+0]
	#DEBUG_VALUE: max_absval_gpu:y1 <- [DW_OP_plus_uconst 312] [$rsp+0]
	#DEBUG_VALUE: max_absval_gpu:z0 <- [DW_OP_plus_uconst 320] [$rsp+0]
	#DEBUG_VALUE: max_absval_gpu:z1 <- [DW_OP_plus_uconst 328] [$rsp+0]
	#DEBUG_VALUE: max_absval_gpu:dimz <- $r15d
	#DEBUG_VALUE: max_absval_gpu:block <- [DW_OP_LLVM_fragment 0 32] 64
	#DEBUG_VALUE: max_absval_gpu:block <- [DW_OP_LLVM_fragment 32 32] 34359738432
	#DEBUG_VALUE: max_absval_gpu:block <- [DW_OP_LLVM_fragment 64 32] 1
	#DEBUG_VALUE: max_absval_gpu:grid <- [DW_OP_LLVM_arg 0, DW_OP_constu 1, DW_OP_minus, DW_OP_LLVM_arg 1, DW_OP_div, DW_OP_plus_uconst 1, DW_OP_stack_value, DW_OP_LLVM_fragment 64 32] $r14d, $r15d
	#DEBUG_VALUE: ceil:x <- $r14d
	#DEBUG_VALUE: ceil:y <- $r15d
	.loc	2 0 0                           # ./compare.hpp:0:0
	sarl	$6, %r13d
	incl	%r13d
.Ltmp17:
	#DEBUG_VALUE: max_absval_gpu:grid <- [DW_OP_constu 4294967296, DW_OP_or, DW_OP_stack_value, DW_OP_LLVM_fragment 0 32] $r13d
	sarl	$3, %ebp
	incl	%ebp
	shlq	$32, %rbp
	orq	%r13, %rbp
.Ltmp18:
	#DEBUG_VALUE: max_absval_gpu:grid <- [DW_OP_LLVM_fragment 32 32] $rbp
	.loc	6 69 15 is_stmt 1               # ./helper.hpp:69:15
	leal	-1(%r14), %eax
.Ltmp19:
	#DEBUG_VALUE: max_absval_gpu:grid <- [DW_OP_LLVM_arg 0, DW_OP_LLVM_arg 1, DW_OP_div, DW_OP_plus_uconst 1, DW_OP_stack_value, DW_OP_LLVM_fragment 64 32] $eax, $r15d
	.loc	6 69 20 is_stmt 0               # ./helper.hpp:69:20
	cltd
.Ltmp20:
	idivl	%r15d
                                        # kill: def $eax killed $eax def $rax
.Ltmp21:
	#DEBUG_VALUE: max_absval_gpu:grid <- [DW_OP_plus_uconst 1, DW_OP_stack_value, DW_OP_LLVM_fragment 64 32] $eax
	.loc	6 69 24                         # ./helper.hpp:69:24
	leal	1(%rax), %esi
.Ltmp22:
	#DEBUG_VALUE: max_absval_gpu:grid <- [DW_OP_LLVM_fragment 64 32] $esi
	.loc	6 0 24                          # ./helper.hpp:0:24
	movabsq	$34359738432, %rdx              # imm = 0x800000040
.Ltmp23:
	.loc	2 69 26                         # ./compare.hpp:69:26
	movq	%rbp, %rdi
	movl	$1, %ecx
	xorl	%r8d, %r8d
	xorl	%r9d, %r9d
	callq	__hipPushCallConfiguration
.Ltmp24:
	testl	%eax, %eax
	.loc	2 69 5                          # ./compare.hpp:69:5
	jne	.LBB1_5
.Ltmp25:
# %bb.4:
	#DEBUG_VALUE: max_absval_gpu:u <- [DW_OP_plus_uconst 56] [$rsp+0]
	#DEBUG_VALUE: max_absval_gpu:v <- [DW_OP_plus_uconst 64] [$rsp+0]
	#DEBUG_VALUE: max_absval_gpu:line <- [DW_OP_plus_uconst 8] [$rsp+0]
	#DEBUG_VALUE: max_absval_gpu:slice <- [DW_OP_plus_uconst 12] [$rsp+0]
	#DEBUG_VALUE: max_absval_gpu:x0 <- [DW_OP_plus_uconst 16] [$rsp+0]
	#DEBUG_VALUE: max_absval_gpu:x1 <- $ebx
	#DEBUG_VALUE: max_absval_gpu:y0 <- [DW_OP_plus_uconst 304] [$rsp+0]
	#DEBUG_VALUE: max_absval_gpu:y1 <- [DW_OP_plus_uconst 312] [$rsp+0]
	#DEBUG_VALUE: max_absval_gpu:z0 <- [DW_OP_plus_uconst 320] [$rsp+0]
	#DEBUG_VALUE: max_absval_gpu:z1 <- [DW_OP_plus_uconst 328] [$rsp+0]
	#DEBUG_VALUE: max_absval_gpu:dimz <- $r15d
	#DEBUG_VALUE: max_absval_gpu:block <- [DW_OP_LLVM_fragment 0 32] 64
	#DEBUG_VALUE: max_absval_gpu:block <- [DW_OP_LLVM_fragment 32 32] 34359738432
	#DEBUG_VALUE: max_absval_gpu:block <- [DW_OP_LLVM_fragment 64 32] 1
	#DEBUG_VALUE: max_absval_gpu:grid <- [DW_OP_constu 4294967296, DW_OP_or, DW_OP_stack_value, DW_OP_LLVM_fragment 0 32] $r13d
	#DEBUG_VALUE: max_absval_gpu:grid <- [DW_OP_LLVM_fragment 32 32] $rbp
	.loc	2 0 5                           # ./compare.hpp:0:5
	movl	304(%rsp), %eax
	.loc	2 69 44                         # ./compare.hpp:69:44
	movq	(%rsp), %rcx
	.loc	2 69 5                          # ./compare.hpp:69:5
	movq	%rcx, 136(%rsp)
	movq	56(%rsp), %rcx                  # 8-byte Reload
	movq	%rcx, 128(%rsp)
	movq	64(%rsp), %rcx                  # 8-byte Reload
	movq	%rcx, 120(%rsp)
	movl	8(%rsp), %ecx                   # 4-byte Reload
	movl	%ecx, 52(%rsp)
	movl	12(%rsp), %ecx                  # 4-byte Reload
	movl	%ecx, 48(%rsp)
	movl	16(%rsp), %ecx                  # 4-byte Reload
	movl	%ecx, 44(%rsp)
	movl	%ebx, 40(%rsp)
	movl	%eax, 36(%rsp)
	movl	%r12d, 32(%rsp)
	movl	320(%rsp), %eax
	movl	%eax, 28(%rsp)
	movl	%r14d, 24(%rsp)
	movl	%r15d, 20(%rsp)
	leaq	136(%rsp), %rax
	movq	%rax, 144(%rsp)
	leaq	128(%rsp), %rax
	movq	%rax, 152(%rsp)
	leaq	120(%rsp), %rax
	movq	%rax, 160(%rsp)
	leaq	52(%rsp), %rax
	movq	%rax, 168(%rsp)
	leaq	48(%rsp), %rax
	movq	%rax, 176(%rsp)
	leaq	44(%rsp), %rax
	movq	%rax, 184(%rsp)
	leaq	40(%rsp), %rax
	movq	%rax, 192(%rsp)
	leaq	36(%rsp), %rax
	movq	%rax, 200(%rsp)
	leaq	32(%rsp), %rax
	movq	%rax, 208(%rsp)
	leaq	28(%rsp), %rax
	movq	%rax, 216(%rsp)
	leaq	24(%rsp), %rax
	movq	%rax, 224(%rsp)
	leaq	20(%rsp), %rax
	movq	%rax, 232(%rsp)
	leaq	104(%rsp), %rdi
	leaq	88(%rsp), %rsi
	leaq	80(%rsp), %rdx
	leaq	72(%rsp), %rcx
	callq	__hipPopCallConfiguration
.Ltmp26:
	movq	104(%rsp), %rsi
	movl	112(%rsp), %edx
	movq	88(%rsp), %rcx
	movl	96(%rsp), %r8d
	leaq	144(%rsp), %r9
	movl	$_Z21max_absval_gpu_kernelPfPKfS1_iiiiiiiii, %edi
	pushq	72(%rsp)
.Ltmp27:
	.cfi_adjust_cfa_offset 8
	pushq	88(%rsp)
	.cfi_adjust_cfa_offset 8
	callq	hipLaunchKernel
.Ltmp28:
	addq	$16, %rsp
	.cfi_adjust_cfa_offset -16
.Ltmp29:
.LBB1_5:
	#DEBUG_VALUE: max_absval_gpu:u <- [DW_OP_plus_uconst 56] [$rsp+0]
	#DEBUG_VALUE: max_absval_gpu:v <- [DW_OP_plus_uconst 64] [$rsp+0]
	#DEBUG_VALUE: max_absval_gpu:line <- [DW_OP_plus_uconst 8] [$rsp+0]
	#DEBUG_VALUE: max_absval_gpu:slice <- [DW_OP_plus_uconst 12] [$rsp+0]
	#DEBUG_VALUE: max_absval_gpu:x0 <- [DW_OP_plus_uconst 16] [$rsp+0]
	#DEBUG_VALUE: max_absval_gpu:x1 <- $ebx
	#DEBUG_VALUE: max_absval_gpu:dimz <- $r15d
	#DEBUG_VALUE: max_absval_gpu:block <- [DW_OP_LLVM_fragment 0 32] 64
	#DEBUG_VALUE: max_absval_gpu:block <- [DW_OP_LLVM_fragment 32 32] 34359738432
	#DEBUG_VALUE: max_absval_gpu:block <- [DW_OP_LLVM_fragment 64 32] 1
	#DEBUG_VALUE: max_absval_gpu:grid <- [DW_OP_constu 4294967296, DW_OP_or, DW_OP_stack_value, DW_OP_LLVM_fragment 0 32] $r13d
	#DEBUG_VALUE: max_absval_gpu:grid <- [DW_OP_LLVM_fragment 32 32] $rbp
	.loc	2 70 10 is_stmt 1               # ./compare.hpp:70:10
	callq	hipGetLastError
.Ltmp30:
	.loc	2 70 28 is_stmt 0               # ./compare.hpp:70:28
	testl	%eax, %eax
.Ltmp31:
	.loc	2 70 10                         # ./compare.hpp:70:10
	jne	.LBB1_6
.Ltmp32:
# %bb.8:
	#DEBUG_VALUE: max_absval_gpu:u <- [DW_OP_plus_uconst 56] [$rsp+0]
	#DEBUG_VALUE: max_absval_gpu:v <- [DW_OP_plus_uconst 64] [$rsp+0]
	#DEBUG_VALUE: max_absval_gpu:line <- [DW_OP_plus_uconst 8] [$rsp+0]
	#DEBUG_VALUE: max_absval_gpu:slice <- [DW_OP_plus_uconst 12] [$rsp+0]
	#DEBUG_VALUE: max_absval_gpu:x0 <- [DW_OP_plus_uconst 16] [$rsp+0]
	#DEBUG_VALUE: max_absval_gpu:x1 <- $ebx
	#DEBUG_VALUE: max_absval_gpu:dimz <- $r15d
	#DEBUG_VALUE: max_absval_gpu:block <- [DW_OP_LLVM_fragment 0 32] 64
	#DEBUG_VALUE: max_absval_gpu:block <- [DW_OP_LLVM_fragment 32 32] 34359738432
	#DEBUG_VALUE: max_absval_gpu:block <- [DW_OP_LLVM_fragment 64 32] 1
	#DEBUG_VALUE: max_absval_gpu:grid <- [DW_OP_constu 4294967296, DW_OP_or, DW_OP_stack_value, DW_OP_LLVM_fragment 0 32] $r13d
	#DEBUG_VALUE: max_absval_gpu:grid <- [DW_OP_LLVM_fragment 32 32] $rbp
	.loc	2 71 18 is_stmt 1               # ./compare.hpp:71:18
	movl	$4, %edi
	callq	_Znam
.Ltmp33:
	movq	%rax, %rbx
.Ltmp34:
	#DEBUG_VALUE: max_absval_gpu:x1 <- [DW_OP_LLVM_entry_value 1] $r9d
	#DEBUG_VALUE: max_absval_gpu:out <- $rbx
	.loc	2 73 25                         # ./compare.hpp:73:25
	movq	(%rsp), %rsi
	.loc	2 73 10 is_stmt 0               # ./compare.hpp:73:10
	movl	$4, %edx
	movq	%rax, %rdi
	movl	$2, %ecx
	callq	hipMemcpy
.Ltmp35:
	.loc	2 73 70                         # ./compare.hpp:73:70
	testl	%eax, %eax
.Ltmp36:
	.loc	2 73 10                         # ./compare.hpp:73:10
	jne	.LBB1_9
.Ltmp37:
# %bb.10:
	#DEBUG_VALUE: max_absval_gpu:u <- [DW_OP_plus_uconst 56] [$rsp+0]
	#DEBUG_VALUE: max_absval_gpu:v <- [DW_OP_plus_uconst 64] [$rsp+0]
	#DEBUG_VALUE: max_absval_gpu:line <- [DW_OP_plus_uconst 8] [$rsp+0]
	#DEBUG_VALUE: max_absval_gpu:slice <- [DW_OP_plus_uconst 12] [$rsp+0]
	#DEBUG_VALUE: max_absval_gpu:x0 <- [DW_OP_plus_uconst 16] [$rsp+0]
	#DEBUG_VALUE: max_absval_gpu:x1 <- [DW_OP_LLVM_entry_value 1] $r9d
	#DEBUG_VALUE: max_absval_gpu:dimz <- $r15d
	#DEBUG_VALUE: max_absval_gpu:block <- [DW_OP_LLVM_fragment 0 32] 64
	#DEBUG_VALUE: max_absval_gpu:block <- [DW_OP_LLVM_fragment 32 32] 34359738432
	#DEBUG_VALUE: max_absval_gpu:block <- [DW_OP_LLVM_fragment 64 32] 1
	#DEBUG_VALUE: max_absval_gpu:grid <- [DW_OP_constu 4294967296, DW_OP_or, DW_OP_stack_value, DW_OP_LLVM_fragment 0 32] $r13d
	#DEBUG_VALUE: max_absval_gpu:grid <- [DW_OP_LLVM_fragment 32 32] $rbp
	#DEBUG_VALUE: max_absval_gpu:out <- $rbx
	.loc	2 74 12 is_stmt 1               # ./compare.hpp:74:12
	movss	(%rbx), %xmm0                   # xmm0 = mem[0],zero,zero,zero
	.loc	2 74 5 epilogue_begin is_stmt 0 # ./compare.hpp:74:5
	addq	$248, %rsp
	.cfi_def_cfa_offset 56
	popq	%rbx
.Ltmp38:
	.cfi_def_cfa_offset 48
	popq	%r12
	.cfi_def_cfa_offset 40
	popq	%r13
.Ltmp39:
	.cfi_def_cfa_offset 32
	popq	%r14
	.cfi_def_cfa_offset 24
	popq	%r15
.Ltmp40:
	.cfi_def_cfa_offset 16
	popq	%rbp
.Ltmp41:
	.cfi_def_cfa_offset 8
	retq
.Ltmp42:
.LBB1_11:
	.cfi_def_cfa_offset 304
	#DEBUG_VALUE: max_absval_gpu:u <- [DW_OP_plus_uconst 56] [$rsp+0]
	#DEBUG_VALUE: max_absval_gpu:v <- [DW_OP_plus_uconst 64] [$rsp+0]
	#DEBUG_VALUE: max_absval_gpu:line <- [DW_OP_plus_uconst 8] [$rsp+0]
	#DEBUG_VALUE: max_absval_gpu:slice <- [DW_OP_plus_uconst 12] [$rsp+0]
	#DEBUG_VALUE: max_absval_gpu:x0 <- [DW_OP_plus_uconst 16] [$rsp+0]
	#DEBUG_VALUE: max_absval_gpu:x1 <- $ebx
	#DEBUG_VALUE: max_absval_gpu:y0 <- [DW_OP_plus_uconst 304] [$rsp+0]
	#DEBUG_VALUE: max_absval_gpu:y1 <- [DW_OP_plus_uconst 312] [$rsp+0]
	#DEBUG_VALUE: max_absval_gpu:z0 <- [DW_OP_plus_uconst 320] [$rsp+0]
	#DEBUG_VALUE: max_absval_gpu:z1 <- [DW_OP_plus_uconst 328] [$rsp+0]
	#DEBUG_VALUE: max_absval_gpu:dimz <- $r15d
	#DEBUG_VALUE: max_absval_gpu:block <- [DW_OP_LLVM_fragment 0 32] 64
	#DEBUG_VALUE: max_absval_gpu:block <- [DW_OP_LLVM_fragment 32 32] 34359738432
	#DEBUG_VALUE: max_absval_gpu:block <- [DW_OP_LLVM_fragment 64 32] 1
	#DEBUG_VALUE: max_absval_gpu:grid <- [DW_OP_LLVM_fragment 64 32] 1
	#DEBUG_VALUE: ceil:x <- $r14d
	#DEBUG_VALUE: ceil:y <- $r15d
	.loc	6 68 46 is_stmt 1               # ./helper.hpp:68:46
	movl	$.L.str.26, %edi
	movl	$.L.str.27, %esi
	movl	$.L__PRETTY_FUNCTION__._Z4ceilii, %ecx
	movl	$68, %edx
	callq	__assert_fail
.Ltmp43:
.LBB1_2:
	#DEBUG_VALUE: max_absval_gpu:u <- [DW_OP_plus_uconst 56] [$rsp+0]
	#DEBUG_VALUE: max_absval_gpu:v <- [DW_OP_plus_uconst 64] [$rsp+0]
	#DEBUG_VALUE: max_absval_gpu:line <- [DW_OP_plus_uconst 8] [$rsp+0]
	#DEBUG_VALUE: max_absval_gpu:slice <- [DW_OP_plus_uconst 12] [$rsp+0]
	#DEBUG_VALUE: max_absval_gpu:x0 <- [DW_OP_plus_uconst 16] [$rsp+0]
	#DEBUG_VALUE: max_absval_gpu:x1 <- $ebx
	#DEBUG_VALUE: max_absval_gpu:y0 <- [DW_OP_plus_uconst 304] [$rsp+0]
	#DEBUG_VALUE: max_absval_gpu:y1 <- [DW_OP_plus_uconst 312] [$rsp+0]
	#DEBUG_VALUE: max_absval_gpu:z0 <- [DW_OP_plus_uconst 320] [$rsp+0]
	#DEBUG_VALUE: max_absval_gpu:z1 <- [DW_OP_plus_uconst 328] [$rsp+0]
	#DEBUG_VALUE: max_absval_gpu:dimz <- $r15d
	#DEBUG_VALUE: max_absval_gpu:block <- [DW_OP_LLVM_fragment 0 32] 64
	#DEBUG_VALUE: max_absval_gpu:block <- [DW_OP_LLVM_fragment 32 32] 34359738432
	#DEBUG_VALUE: max_absval_gpu:block <- [DW_OP_LLVM_fragment 64 32] 1
	#DEBUG_VALUE: max_absval_gpu:grid <- [DW_OP_LLVM_arg 0, DW_OP_constu 1, DW_OP_minus, DW_OP_LLVM_arg 1, DW_OP_div, DW_OP_plus_uconst 1, DW_OP_stack_value, DW_OP_LLVM_fragment 64 32] $r14d, $r15d
	.loc	2 67 70                         # ./compare.hpp:67:70
	movl	$_ZSt4cerr, %edi
	movl	$.L.str, %esi
	callq	_ZStlsISt11char_traitsIcEERSt13basic_ostreamIcT_ES5_PKc
.Ltmp44:
	movq	%rax, %rbx
.Ltmp45:
	#DEBUG_VALUE: max_absval_gpu:x1 <- [DW_OP_LLVM_entry_value 1] $r9d
	.loc	2 0 70 is_stmt 0                # ./compare.hpp:0:70
	movq	%rsp, %rdi
	.loc	2 67 108                        # ./compare.hpp:67:108
	movl	$4, %esi
	callq	_ZL9hipMallocIfE10hipError_tPPT_m
.Ltmp46:
	.loc	2 67 90                         # ./compare.hpp:67:90
	movl	%eax, %edi
	callq	hipGetErrorString
.Ltmp47:
	.loc	2 67 87                         # ./compare.hpp:67:87
	movq	%rbx, %rdi
	movq	%rax, %rsi
	callq	_ZStlsISt11char_traitsIcEERSt13basic_ostreamIcT_ES5_PKc
.Ltmp48:
	.loc	2 67 142                        # ./compare.hpp:67:142
	movl	$.L.str.1, %esi
	movq	%rax, %rdi
	callq	_ZStlsISt11char_traitsIcEERSt13basic_ostreamIcT_ES5_PKc
.Ltmp49:
	.loc	2 67 157                        # ./compare.hpp:67:157
	movl	$.L.str.2, %esi
	movq	%rax, %rdi
	callq	_ZStlsISt11char_traitsIcEERSt13basic_ostreamIcT_ES5_PKc
.Ltmp50:
	.loc	2 67 176                        # ./compare.hpp:67:176
	movl	$.L.str.3, %esi
	movq	%rax, %rdi
	callq	_ZStlsISt11char_traitsIcEERSt13basic_ostreamIcT_ES5_PKc
.Ltmp51:
	.loc	2 67 183                        # ./compare.hpp:67:183
	movq	%rax, %rdi
	movl	$67, %esi
	jmp	.LBB1_7
.Ltmp52:
.LBB1_6:
	#DEBUG_VALUE: max_absval_gpu:u <- [DW_OP_plus_uconst 56] [$rsp+0]
	#DEBUG_VALUE: max_absval_gpu:v <- [DW_OP_plus_uconst 64] [$rsp+0]
	#DEBUG_VALUE: max_absval_gpu:line <- [DW_OP_plus_uconst 8] [$rsp+0]
	#DEBUG_VALUE: max_absval_gpu:slice <- [DW_OP_plus_uconst 12] [$rsp+0]
	#DEBUG_VALUE: max_absval_gpu:x0 <- [DW_OP_plus_uconst 16] [$rsp+0]
	#DEBUG_VALUE: max_absval_gpu:x1 <- $ebx
	#DEBUG_VALUE: max_absval_gpu:dimz <- $r15d
	#DEBUG_VALUE: max_absval_gpu:block <- [DW_OP_LLVM_fragment 0 32] 64
	#DEBUG_VALUE: max_absval_gpu:block <- [DW_OP_LLVM_fragment 32 32] 34359738432
	#DEBUG_VALUE: max_absval_gpu:block <- [DW_OP_LLVM_fragment 64 32] 1
	#DEBUG_VALUE: max_absval_gpu:grid <- [DW_OP_constu 4294967296, DW_OP_or, DW_OP_stack_value, DW_OP_LLVM_fragment 0 32] $r13d
	#DEBUG_VALUE: max_absval_gpu:grid <- [DW_OP_LLVM_fragment 32 32] $rbp
	.loc	2 70 55 is_stmt 1               # ./compare.hpp:70:55
	movl	$_ZSt4cerr, %edi
	movl	$.L.str, %esi
	callq	_ZStlsISt11char_traitsIcEERSt13basic_ostreamIcT_ES5_PKc
.Ltmp53:
	movq	%rax, %rbx
.Ltmp54:
	#DEBUG_VALUE: max_absval_gpu:x1 <- [DW_OP_LLVM_entry_value 1] $r9d
	.loc	2 70 93 is_stmt 0               # ./compare.hpp:70:93
	callq	hipGetLastError
.Ltmp55:
	.loc	2 70 75                         # ./compare.hpp:70:75
	movl	%eax, %edi
	callq	hipGetErrorString
.Ltmp56:
	.loc	2 70 72                         # ./compare.hpp:70:72
	movq	%rbx, %rdi
	movq	%rax, %rsi
	callq	_ZStlsISt11char_traitsIcEERSt13basic_ostreamIcT_ES5_PKc
.Ltmp57:
	.loc	2 70 112                        # ./compare.hpp:70:112
	movl	$.L.str.1, %esi
	movq	%rax, %rdi
	callq	_ZStlsISt11char_traitsIcEERSt13basic_ostreamIcT_ES5_PKc
.Ltmp58:
	.loc	2 70 127                        # ./compare.hpp:70:127
	movl	$.L.str.2, %esi
	movq	%rax, %rdi
	callq	_ZStlsISt11char_traitsIcEERSt13basic_ostreamIcT_ES5_PKc
.Ltmp59:
	.loc	2 70 146                        # ./compare.hpp:70:146
	movl	$.L.str.3, %esi
	movq	%rax, %rdi
	callq	_ZStlsISt11char_traitsIcEERSt13basic_ostreamIcT_ES5_PKc
.Ltmp60:
	.loc	2 70 153                        # ./compare.hpp:70:153
	movq	%rax, %rdi
	movl	$70, %esi
	jmp	.LBB1_7
.Ltmp61:
.LBB1_9:
	#DEBUG_VALUE: max_absval_gpu:u <- [DW_OP_plus_uconst 56] [$rsp+0]
	#DEBUG_VALUE: max_absval_gpu:v <- [DW_OP_plus_uconst 64] [$rsp+0]
	#DEBUG_VALUE: max_absval_gpu:line <- [DW_OP_plus_uconst 8] [$rsp+0]
	#DEBUG_VALUE: max_absval_gpu:slice <- [DW_OP_plus_uconst 12] [$rsp+0]
	#DEBUG_VALUE: max_absval_gpu:x0 <- [DW_OP_plus_uconst 16] [$rsp+0]
	#DEBUG_VALUE: max_absval_gpu:x1 <- [DW_OP_LLVM_entry_value 1] $r9d
	#DEBUG_VALUE: max_absval_gpu:dimz <- $r15d
	#DEBUG_VALUE: max_absval_gpu:block <- [DW_OP_LLVM_fragment 0 32] 64
	#DEBUG_VALUE: max_absval_gpu:block <- [DW_OP_LLVM_fragment 32 32] 34359738432
	#DEBUG_VALUE: max_absval_gpu:block <- [DW_OP_LLVM_fragment 64 32] 1
	#DEBUG_VALUE: max_absval_gpu:grid <- [DW_OP_constu 4294967296, DW_OP_or, DW_OP_stack_value, DW_OP_LLVM_fragment 0 32] $r13d
	#DEBUG_VALUE: max_absval_gpu:grid <- [DW_OP_LLVM_fragment 32 32] $rbp
	#DEBUG_VALUE: max_absval_gpu:out <- $rbx
	.loc	2 73 97 is_stmt 1               # ./compare.hpp:73:97
	movl	$_ZSt4cerr, %edi
	movl	$.L.str, %esi
	callq	_ZStlsISt11char_traitsIcEERSt13basic_ostreamIcT_ES5_PKc
.Ltmp62:
	movq	%rax, %r14
	.loc	2 73 150 is_stmt 0              # ./compare.hpp:73:150
	movq	(%rsp), %rsi
	.loc	2 73 135                        # ./compare.hpp:73:135
	movl	$4, %edx
	movq	%rbx, %rdi
	movl	$2, %ecx
	callq	hipMemcpy
.Ltmp63:
	.loc	2 73 117                        # ./compare.hpp:73:117
	movl	%eax, %edi
	callq	hipGetErrorString
.Ltmp64:
	.loc	2 73 114                        # ./compare.hpp:73:114
	movq	%r14, %rdi
	movq	%rax, %rsi
	callq	_ZStlsISt11char_traitsIcEERSt13basic_ostreamIcT_ES5_PKc
.Ltmp65:
	.loc	2 73 196                        # ./compare.hpp:73:196
	movl	$.L.str.1, %esi
	movq	%rax, %rdi
	callq	_ZStlsISt11char_traitsIcEERSt13basic_ostreamIcT_ES5_PKc
.Ltmp66:
	.loc	2 73 211                        # ./compare.hpp:73:211
	movl	$.L.str.2, %esi
	movq	%rax, %rdi
	callq	_ZStlsISt11char_traitsIcEERSt13basic_ostreamIcT_ES5_PKc
.Ltmp67:
	.loc	2 73 230                        # ./compare.hpp:73:230
	movl	$.L.str.3, %esi
	movq	%rax, %rdi
	callq	_ZStlsISt11char_traitsIcEERSt13basic_ostreamIcT_ES5_PKc
.Ltmp68:
	.loc	2 73 237                        # ./compare.hpp:73:237
	movq	%rax, %rdi
	movl	$73, %esi
.Ltmp69:
.LBB1_7:
	#DEBUG_VALUE: max_absval_gpu:u <- [DW_OP_plus_uconst 56] [$rsp+0]
	#DEBUG_VALUE: max_absval_gpu:v <- [DW_OP_plus_uconst 64] [$rsp+0]
	#DEBUG_VALUE: max_absval_gpu:line <- [DW_OP_plus_uconst 8] [$rsp+0]
	#DEBUG_VALUE: max_absval_gpu:slice <- [DW_OP_plus_uconst 12] [$rsp+0]
	#DEBUG_VALUE: max_absval_gpu:x0 <- [DW_OP_plus_uconst 16] [$rsp+0]
	#DEBUG_VALUE: max_absval_gpu:x1 <- [DW_OP_LLVM_entry_value 1] $r9d
	#DEBUG_VALUE: max_absval_gpu:dimz <- $r15d
	#DEBUG_VALUE: max_absval_gpu:block <- [DW_OP_LLVM_fragment 0 32] 64
	#DEBUG_VALUE: max_absval_gpu:block <- [DW_OP_LLVM_fragment 32 32] 34359738432
	#DEBUG_VALUE: max_absval_gpu:block <- [DW_OP_LLVM_fragment 64 32] 1
	.loc	2 0 0                           # ./compare.hpp:0:0
	callq	_ZNSolsEi
.Ltmp70:
	.file	27 "/usr/lib/gcc/x86_64-redhat-linux/8/../../../../include/c++/8" "ostream"
	.loc	27 113 9 is_stmt 1              # /usr/lib/gcc/x86_64-redhat-linux/8/../../../../include/c++/8/ostream:113:9
	movq	%rax, %rdi
	callq	_ZSt4endlIcSt11char_traitsIcEERSt13basic_ostreamIT_T0_ES6_
.Ltmp71:
	#DEBUG_VALUE: operator<<:__pf <- undef
	.loc	2 0 0 is_stmt 0                 # ./compare.hpp:0:0
	movl	$-1, %edi
	callq	exit
.Ltmp72:
.Lfunc_end1:
	.size	_Z14max_absval_gpuPfPKfiiiiiiiii, .Lfunc_end1-_Z14max_absval_gpuPfPKfiiiiiiiii
	.cfi_endproc
	.file	28 "/usr/include" "assert.h"
	.file	29 "/usr/include" "stdlib.h"
                                        # -- End function
	.p2align	4, 0x90                         # -- Begin function _ZL9hipMallocIfE10hipError_tPPT_m
	.type	_ZL9hipMallocIfE10hipError_tPPT_m,@function
_ZL9hipMallocIfE10hipError_tPPT_m:      # @_ZL9hipMallocIfE10hipError_tPPT_m
.Lfunc_begin2:
	.cfi_startproc
# %bb.0:
	#DEBUG_VALUE: hipMalloc<float>:devPtr <- $rdi
	#DEBUG_VALUE: hipMalloc<float>:size <- $rsi
	.loc	18 8870 12 prologue_end is_stmt 1 # /opt/rocm-6.1.1/include/hip/hip_runtime_api.h:8870:12
	jmp	hipMalloc                       # TAILCALL
.Ltmp73:
.Lfunc_end2:
	.size	_ZL9hipMallocIfE10hipError_tPPT_m, .Lfunc_end2-_ZL9hipMallocIfE10hipError_tPPT_m
	.cfi_endproc
                                        # -- End function
	.section	.rodata.cst4,"aM",@progbits,4
	.p2align	2, 0x0                          # -- Begin function _Z26fd_coefficients_d2_order_2Pfif
.LCPI3_0:
	.long	0x3f800000                      # float 1
.LCPI3_1:
	.long	0xc0000000                      # float -2
	.text
	.globl	_Z26fd_coefficients_d2_order_2Pfif
	.p2align	4, 0x90
	.type	_Z26fd_coefficients_d2_order_2Pfif,@function
_Z26fd_coefficients_d2_order_2Pfif:     # @_Z26fd_coefficients_d2_order_2Pfif
.Lfunc_begin3:
	.cfi_startproc
# %bb.0:
	#DEBUG_VALUE: fd_coefficients_d2_order_2:dout <- $rdi
	#DEBUG_VALUE: fd_coefficients_d2_order_2:R <- $esi
	#DEBUG_VALUE: fd_coefficients_d2_order_2:h <- $xmm0
	.loc	3 6 28 prologue_end             # ./fd_coefficients.hpp:6:28
	cmpl	$1, %esi
	.loc	3 6 6 is_stmt 0                 # ./fd_coefficients.hpp:6:6
	jne	.LBB3_2
.Ltmp74:
# %bb.1:
	#DEBUG_VALUE: fd_coefficients_d2_order_2:dout <- $rdi
	#DEBUG_VALUE: fd_coefficients_d2_order_2:R <- $esi
	#DEBUG_VALUE: fd_coefficients_d2_order_2:h <- $xmm0
	.loc	3 7 30 is_stmt 1                # ./fd_coefficients.hpp:7:30
	mulss	%xmm0, %xmm0
.Ltmp75:
	#DEBUG_VALUE: fd_coefficients_d2_order_2:h <- [DW_OP_LLVM_entry_value 1] $xmm0
	.loc	3 0 30 is_stmt 0                # ./fd_coefficients.hpp:0:30
	movss	.LCPI3_0(%rip), %xmm1           # xmm1 = mem[0],zero,zero,zero
	.loc	3 7 21                          # ./fd_coefficients.hpp:7:21
	divss	%xmm0, %xmm1
.Ltmp76:
	#DEBUG_VALUE: fd_coefficients_d2_order_2:scaling <- $xmm1
	.loc	3 8 13 is_stmt 1                # ./fd_coefficients.hpp:8:13
	movss	%xmm1, (%rdi)
	movss	.LCPI3_1(%rip), %xmm0           # xmm0 = mem[0],zero,zero,zero
	.loc	3 9 21                          # ./fd_coefficients.hpp:9:21
	mulss	%xmm1, %xmm0
	.loc	3 9 13 is_stmt 0                # ./fd_coefficients.hpp:9:13
	movss	%xmm0, 4(%rdi)
	.loc	3 10 13 is_stmt 1               # ./fd_coefficients.hpp:10:13
	movss	%xmm1, 8(%rdi)
	.loc	3 11 1                          # ./fd_coefficients.hpp:11:1
	retq
.Ltmp77:
.LBB3_2:
	#DEBUG_VALUE: fd_coefficients_d2_order_2:dout <- $rdi
	#DEBUG_VALUE: fd_coefficients_d2_order_2:R <- $esi
	#DEBUG_VALUE: fd_coefficients_d2_order_2:h <- $xmm0
	pushq	%rax
	.cfi_def_cfa_offset 16
	.loc	3 6 47                          # ./fd_coefficients.hpp:6:47
	movl	$.L.str.4, %edi
.Ltmp78:
	#DEBUG_VALUE: fd_coefficients_d2_order_2:dout <- [DW_OP_LLVM_entry_value 1] $rdi
	movl	$.L.str.5, %esi
.Ltmp79:
	#DEBUG_VALUE: fd_coefficients_d2_order_2:R <- [DW_OP_LLVM_entry_value 1] $esi
	movl	$.L__PRETTY_FUNCTION__._Z26fd_coefficients_d2_order_2Pfif, %ecx
	movl	$6, %edx
	callq	__assert_fail
.Ltmp80:
	#DEBUG_VALUE: fd_coefficients_d2_order_2:h <- [DW_OP_LLVM_entry_value 1] $xmm0
.Lfunc_end3:
	.size	_Z26fd_coefficients_d2_order_2Pfif, .Lfunc_end3-_Z26fd_coefficients_d2_order_2Pfif
	.cfi_endproc
                                        # -- End function
	.section	.rodata.cst4,"aM",@progbits,4
	.p2align	2, 0x0                          # -- Begin function _Z26fd_coefficients_d2_order_4Pfif
.LCPI4_0:
	.long	0x3f800000                      # float 1
.LCPI4_2:
	.long	0xc0200000                      # float -2.5
	.section	.rodata.cst16,"aM",@progbits,16
	.p2align	4, 0x0
.LCPI4_1:
	.long	0xbdaaaaab                      # float -0.0833333358
	.long	0x3faaaaab                      # float 1.33333337
	.zero	4
	.zero	4
	.text
	.globl	_Z26fd_coefficients_d2_order_4Pfif
	.p2align	4, 0x90
	.type	_Z26fd_coefficients_d2_order_4Pfif,@function
_Z26fd_coefficients_d2_order_4Pfif:     # @_Z26fd_coefficients_d2_order_4Pfif
.Lfunc_begin4:
	.cfi_startproc
# %bb.0:
	#DEBUG_VALUE: fd_coefficients_d2_order_4:dout <- $rdi
	#DEBUG_VALUE: fd_coefficients_d2_order_4:R <- $esi
	#DEBUG_VALUE: fd_coefficients_d2_order_4:h <- $xmm0
	.loc	3 14 28 prologue_end            # ./fd_coefficients.hpp:14:28
	cmpl	$2, %esi
	.loc	3 14 6 is_stmt 0                # ./fd_coefficients.hpp:14:6
	jne	.LBB4_2
.Ltmp81:
# %bb.1:
	#DEBUG_VALUE: fd_coefficients_d2_order_4:dout <- $rdi
	#DEBUG_VALUE: fd_coefficients_d2_order_4:R <- $esi
	#DEBUG_VALUE: fd_coefficients_d2_order_4:h <- $xmm0
	.loc	3 15 30 is_stmt 1               # ./fd_coefficients.hpp:15:30
	mulss	%xmm0, %xmm0
.Ltmp82:
	#DEBUG_VALUE: fd_coefficients_d2_order_4:h <- [DW_OP_LLVM_entry_value 1] $xmm0
	.loc	3 0 30 is_stmt 0                # ./fd_coefficients.hpp:0:30
	movss	.LCPI4_0(%rip), %xmm1           # xmm1 = mem[0],zero,zero,zero
	.loc	3 15 21                         # ./fd_coefficients.hpp:15:21
	divss	%xmm0, %xmm1
.Ltmp83:
	#DEBUG_VALUE: fd_coefficients_d2_order_4:scaling <- $xmm1
	.loc	3 17 32 is_stmt 1               # ./fd_coefficients.hpp:17:32
	movaps	%xmm1, %xmm0
	shufps	$0, %xmm1, %xmm0                # xmm0 = xmm0[0,0],xmm1[0,0]
	.loc	3 16 36                         # ./fd_coefficients.hpp:16:36
	mulps	.LCPI4_1(%rip), %xmm0
	.loc	3 18 33                         # ./fd_coefficients.hpp:18:33
	mulss	.LCPI4_2(%rip), %xmm1
.Ltmp84:
	.loc	3 16 13                         # ./fd_coefficients.hpp:16:13
	movlps	%xmm0, (%rdi)
	.loc	3 18 13                         # ./fd_coefficients.hpp:18:13
	movss	%xmm1, 8(%rdi)
	.loc	3 19 13                         # ./fd_coefficients.hpp:19:13
	shufps	$225, %xmm0, %xmm0              # xmm0 = xmm0[1,0,2,3]
	movlps	%xmm0, 12(%rdi)
	.loc	3 21 1                          # ./fd_coefficients.hpp:21:1
	retq
.Ltmp85:
.LBB4_2:
	#DEBUG_VALUE: fd_coefficients_d2_order_4:dout <- $rdi
	#DEBUG_VALUE: fd_coefficients_d2_order_4:R <- $esi
	#DEBUG_VALUE: fd_coefficients_d2_order_4:h <- $xmm0
	pushq	%rax
	.cfi_def_cfa_offset 16
	.loc	3 14 47                         # ./fd_coefficients.hpp:14:47
	movl	$.L.str.6, %edi
.Ltmp86:
	#DEBUG_VALUE: fd_coefficients_d2_order_4:dout <- [DW_OP_LLVM_entry_value 1] $rdi
	movl	$.L.str.5, %esi
.Ltmp87:
	#DEBUG_VALUE: fd_coefficients_d2_order_4:R <- [DW_OP_LLVM_entry_value 1] $esi
	movl	$.L__PRETTY_FUNCTION__._Z26fd_coefficients_d2_order_4Pfif, %ecx
	movl	$14, %edx
	callq	__assert_fail
.Ltmp88:
	#DEBUG_VALUE: fd_coefficients_d2_order_4:h <- [DW_OP_LLVM_entry_value 1] $xmm0
.Lfunc_end4:
	.size	_Z26fd_coefficients_d2_order_4Pfif, .Lfunc_end4-_Z26fd_coefficients_d2_order_4Pfif
	.cfi_endproc
                                        # -- End function
	.section	.rodata.cst4,"aM",@progbits,4
	.p2align	2, 0x0                          # -- Begin function _Z26fd_coefficients_d2_order_6Pfif
.LCPI5_0:
	.long	0x3f800000                      # float 1
	.section	.rodata.cst16,"aM",@progbits,16
	.p2align	4, 0x0
.LCPI5_1:
	.long	0x3c360b61                      # float 0.0111111114
	.long	0xbe19999a                      # float -0.150000006
	.long	0x3fc00000                      # float 1.5
	.long	0xc02e38e4                      # float -2.72222233
	.text
	.globl	_Z26fd_coefficients_d2_order_6Pfif
	.p2align	4, 0x90
	.type	_Z26fd_coefficients_d2_order_6Pfif,@function
_Z26fd_coefficients_d2_order_6Pfif:     # @_Z26fd_coefficients_d2_order_6Pfif
.Lfunc_begin5:
	.cfi_startproc
# %bb.0:
	#DEBUG_VALUE: fd_coefficients_d2_order_6:dout <- $rdi
	#DEBUG_VALUE: fd_coefficients_d2_order_6:R <- $esi
	#DEBUG_VALUE: fd_coefficients_d2_order_6:h <- $xmm0
	.loc	3 24 28 prologue_end            # ./fd_coefficients.hpp:24:28
	cmpl	$3, %esi
	.loc	3 24 6 is_stmt 0                # ./fd_coefficients.hpp:24:6
	jne	.LBB5_2
.Ltmp89:
# %bb.1:
	#DEBUG_VALUE: fd_coefficients_d2_order_6:dout <- $rdi
	#DEBUG_VALUE: fd_coefficients_d2_order_6:R <- $esi
	#DEBUG_VALUE: fd_coefficients_d2_order_6:h <- $xmm0
	.loc	3 25 30 is_stmt 1               # ./fd_coefficients.hpp:25:30
	mulss	%xmm0, %xmm0
.Ltmp90:
	#DEBUG_VALUE: fd_coefficients_d2_order_6:h <- [DW_OP_LLVM_entry_value 1] $xmm0
	.loc	3 0 30 is_stmt 0                # ./fd_coefficients.hpp:0:30
	movss	.LCPI5_0(%rip), %xmm1           # xmm1 = mem[0],zero,zero,zero
	.loc	3 25 21                         # ./fd_coefficients.hpp:25:21
	divss	%xmm0, %xmm1
.Ltmp91:
	#DEBUG_VALUE: fd_coefficients_d2_order_6:scaling <- $xmm1
	.loc	3 29 37 is_stmt 1               # ./fd_coefficients.hpp:29:37
	shufps	$0, %xmm1, %xmm1                # xmm1 = xmm1[0,0,0,0]
.Ltmp92:
	.loc	3 26 35                         # ./fd_coefficients.hpp:26:35
	mulps	.LCPI5_1(%rip), %xmm1
	.loc	3 26 13 is_stmt 0               # ./fd_coefficients.hpp:26:13
	movups	%xmm1, (%rdi)
	.loc	3 31 13 is_stmt 1               # ./fd_coefficients.hpp:31:13
	movaps	%xmm1, %xmm0
	shufps	$230, %xmm1, %xmm0              # xmm0 = xmm0[2,1],xmm1[2,3]
	.loc	3 30 13                         # ./fd_coefficients.hpp:30:13
	movlps	%xmm0, 16(%rdi)
	.loc	3 32 13                         # ./fd_coefficients.hpp:32:13
	movss	%xmm1, 24(%rdi)
	.loc	3 33 1                          # ./fd_coefficients.hpp:33:1
	retq
.Ltmp93:
.LBB5_2:
	#DEBUG_VALUE: fd_coefficients_d2_order_6:dout <- $rdi
	#DEBUG_VALUE: fd_coefficients_d2_order_6:R <- $esi
	#DEBUG_VALUE: fd_coefficients_d2_order_6:h <- $xmm0
	pushq	%rax
	.cfi_def_cfa_offset 16
	.loc	3 24 47                         # ./fd_coefficients.hpp:24:47
	movl	$.L.str.7, %edi
.Ltmp94:
	#DEBUG_VALUE: fd_coefficients_d2_order_6:dout <- [DW_OP_LLVM_entry_value 1] $rdi
	movl	$.L.str.5, %esi
.Ltmp95:
	#DEBUG_VALUE: fd_coefficients_d2_order_6:R <- [DW_OP_LLVM_entry_value 1] $esi
	movl	$.L__PRETTY_FUNCTION__._Z26fd_coefficients_d2_order_6Pfif, %ecx
	movl	$24, %edx
	callq	__assert_fail
.Ltmp96:
	#DEBUG_VALUE: fd_coefficients_d2_order_6:h <- [DW_OP_LLVM_entry_value 1] $xmm0
.Lfunc_end5:
	.size	_Z26fd_coefficients_d2_order_6Pfif, .Lfunc_end5-_Z26fd_coefficients_d2_order_6Pfif
	.cfi_endproc
                                        # -- End function
	.section	.rodata.cst4,"aM",@progbits,4
	.p2align	2, 0x0                          # -- Begin function _Z26fd_coefficients_d2_order_8Pfif
.LCPI6_0:
	.long	0x3f800000                      # float 1
.LCPI6_2:
	.long	0xc03638e4                      # float -2.84722233
	.section	.rodata.cst16,"aM",@progbits,16
	.p2align	4, 0x0
.LCPI6_1:
	.long	0x3fcccccd                      # float 1.60000002
	.long	0xbe4ccccd                      # float -0.200000003
	.long	0x3cd00d01                      # float 0.0253968257
	.long	0xbaea0ea1                      # float -0.0017857143
	.text
	.globl	_Z26fd_coefficients_d2_order_8Pfif
	.p2align	4, 0x90
	.type	_Z26fd_coefficients_d2_order_8Pfif,@function
_Z26fd_coefficients_d2_order_8Pfif:     # @_Z26fd_coefficients_d2_order_8Pfif
.Lfunc_begin6:
	.cfi_startproc
# %bb.0:
	#DEBUG_VALUE: fd_coefficients_d2_order_8:dout <- $rdi
	#DEBUG_VALUE: fd_coefficients_d2_order_8:R <- $esi
	#DEBUG_VALUE: fd_coefficients_d2_order_8:h <- $xmm0
	.loc	3 36 28 prologue_end            # ./fd_coefficients.hpp:36:28
	cmpl	$4, %esi
	.loc	3 36 6 is_stmt 0                # ./fd_coefficients.hpp:36:6
	jne	.LBB6_2
.Ltmp97:
# %bb.1:
	#DEBUG_VALUE: fd_coefficients_d2_order_8:dout <- $rdi
	#DEBUG_VALUE: fd_coefficients_d2_order_8:R <- $esi
	#DEBUG_VALUE: fd_coefficients_d2_order_8:h <- $xmm0
	.loc	3 37 30 is_stmt 1               # ./fd_coefficients.hpp:37:30
	mulss	%xmm0, %xmm0
.Ltmp98:
	#DEBUG_VALUE: fd_coefficients_d2_order_8:h <- [DW_OP_LLVM_entry_value 1] $xmm0
	.loc	3 0 30 is_stmt 0                # ./fd_coefficients.hpp:0:30
	movss	.LCPI6_0(%rip), %xmm1           # xmm1 = mem[0],zero,zero,zero
	.loc	3 37 21                         # ./fd_coefficients.hpp:37:21
	divss	%xmm0, %xmm1
.Ltmp99:
	#DEBUG_VALUE: fd_coefficients_d2_order_8:scaling <- $xmm1
	.loc	3 41 34 is_stmt 1               # ./fd_coefficients.hpp:41:34
	movaps	%xmm1, %xmm0
	shufps	$0, %xmm1, %xmm0                # xmm0 = xmm0[0,0],xmm1[0,0]
	.loc	3 38 37                         # ./fd_coefficients.hpp:38:37
	mulps	.LCPI6_1(%rip), %xmm0
	.loc	3 38 13 is_stmt 0               # ./fd_coefficients.hpp:38:13
	movaps	%xmm0, %xmm2
	shufps	$27, %xmm0, %xmm2               # xmm2 = xmm2[3,2],xmm0[1,0]
	movups	%xmm2, (%rdi)
	.loc	3 42 38 is_stmt 1               # ./fd_coefficients.hpp:42:38
	mulss	.LCPI6_2(%rip), %xmm1
.Ltmp100:
	.loc	3 42 13 is_stmt 0               # ./fd_coefficients.hpp:42:13
	movss	%xmm1, 16(%rdi)
	.loc	3 43 13 is_stmt 1               # ./fd_coefficients.hpp:43:13
	movups	%xmm0, 20(%rdi)
	.loc	3 47 1                          # ./fd_coefficients.hpp:47:1
	retq
.Ltmp101:
.LBB6_2:
	#DEBUG_VALUE: fd_coefficients_d2_order_8:dout <- $rdi
	#DEBUG_VALUE: fd_coefficients_d2_order_8:R <- $esi
	#DEBUG_VALUE: fd_coefficients_d2_order_8:h <- $xmm0
	pushq	%rax
	.cfi_def_cfa_offset 16
	.loc	3 36 47                         # ./fd_coefficients.hpp:36:47
	movl	$.L.str.8, %edi
.Ltmp102:
	#DEBUG_VALUE: fd_coefficients_d2_order_8:dout <- [DW_OP_LLVM_entry_value 1] $rdi
	movl	$.L.str.5, %esi
.Ltmp103:
	#DEBUG_VALUE: fd_coefficients_d2_order_8:R <- [DW_OP_LLVM_entry_value 1] $esi
	movl	$.L__PRETTY_FUNCTION__._Z26fd_coefficients_d2_order_8Pfif, %ecx
	movl	$36, %edx
	callq	__assert_fail
.Ltmp104:
	#DEBUG_VALUE: fd_coefficients_d2_order_8:h <- [DW_OP_LLVM_entry_value 1] $xmm0
.Lfunc_end6:
	.size	_Z26fd_coefficients_d2_order_8Pfif, .Lfunc_end6-_Z26fd_coefficients_d2_order_8Pfif
	.cfi_endproc
                                        # -- End function
	.globl	_Z43__device_stub__initialize_polynomial_kernelPf15HIP_vector_typeIfLj3EES1_iiiiiiii # -- Begin function _Z43__device_stub__initialize_polynomial_kernelPf15HIP_vector_typeIfLj3EES1_iiiiiiii
	.p2align	4, 0x90
	.type	_Z43__device_stub__initialize_polynomial_kernelPf15HIP_vector_typeIfLj3EES1_iiiiiiii,@function
_Z43__device_stub__initialize_polynomial_kernelPf15HIP_vector_typeIfLj3EES1_iiiiiiii: # @_Z43__device_stub__initialize_polynomial_kernelPf15HIP_vector_typeIfLj3EES1_iiiiiiii
.Lfunc_begin7:
	.cfi_startproc
# %bb.0:
	subq	$200, %rsp
	.cfi_def_cfa_offset 208
	movlps	%xmm0, 96(%rsp)
	movss	%xmm1, 104(%rsp)
	movlps	%xmm2, 80(%rsp)
	movss	%xmm3, 88(%rsp)
	movq	%rdi, 72(%rsp)
	movl	%esi, 20(%rsp)
	movl	%edx, 16(%rsp)
	movl	%ecx, 12(%rsp)
	movl	%r8d, 8(%rsp)
	movl	%r9d, 4(%rsp)
	leaq	72(%rsp), %rax
	movq	%rax, 112(%rsp)
	leaq	96(%rsp), %rax
	movq	%rax, 120(%rsp)
	leaq	80(%rsp), %rax
	movq	%rax, 128(%rsp)
	leaq	20(%rsp), %rax
	movq	%rax, 136(%rsp)
	leaq	16(%rsp), %rax
	movq	%rax, 144(%rsp)
	leaq	12(%rsp), %rax
	movq	%rax, 152(%rsp)
	leaq	8(%rsp), %rax
	movq	%rax, 160(%rsp)
	leaq	4(%rsp), %rax
	movq	%rax, 168(%rsp)
	leaq	208(%rsp), %rax
	movq	%rax, 176(%rsp)
	leaq	216(%rsp), %rax
	movq	%rax, 184(%rsp)
	leaq	224(%rsp), %rax
	movq	%rax, 192(%rsp)
	leaq	56(%rsp), %rdi
	leaq	40(%rsp), %rsi
	leaq	32(%rsp), %rdx
	leaq	24(%rsp), %rcx
	callq	__hipPopCallConfiguration
	movq	56(%rsp), %rsi
	movl	64(%rsp), %edx
	movq	40(%rsp), %rcx
	movl	48(%rsp), %r8d
	leaq	112(%rsp), %r9
	movl	$_Z28initialize_polynomial_kernelPf15HIP_vector_typeIfLj3EES1_iiiiiiii, %edi
	pushq	24(%rsp)
	.cfi_adjust_cfa_offset 8
	pushq	40(%rsp)
	.cfi_adjust_cfa_offset 8
	callq	hipLaunchKernel
	addq	$216, %rsp
	.cfi_adjust_cfa_offset -216
	retq
.Lfunc_end7:
	.size	_Z43__device_stub__initialize_polynomial_kernelPf15HIP_vector_typeIfLj3EES1_iiiiiiii, .Lfunc_end7-_Z43__device_stub__initialize_polynomial_kernelPf15HIP_vector_typeIfLj3EES1_iiiiiiii
	.cfi_endproc
                                        # -- End function
	.globl	_Z21initialize_polynomialPf15HIP_vector_typeIfLj3EES1_iiiiiiii # -- Begin function _Z21initialize_polynomialPf15HIP_vector_typeIfLj3EES1_iiiiiiii
	.p2align	4, 0x90
	.type	_Z21initialize_polynomialPf15HIP_vector_typeIfLj3EES1_iiiiiiii,@function
_Z21initialize_polynomialPf15HIP_vector_typeIfLj3EES1_iiiiiiii: # @_Z21initialize_polynomialPf15HIP_vector_typeIfLj3EES1_iiiiiiii
.Lfunc_begin8:
	.loc	4 20 0                          # ./initialize.hpp:20:0
	.cfi_startproc
# %bb.0:                                # %_Z4ceilii.exit35
	#DEBUG_VALUE: initialize_polynomial:a <- [DW_OP_LLVM_fragment 64 32] $xmm1
	#DEBUG_VALUE: initialize_polynomial:s <- [DW_OP_LLVM_fragment 64 32] $xmm3
	#DEBUG_VALUE: initialize_polynomial:out <- $rdi
	#DEBUG_VALUE: initialize_polynomial:x0 <- $esi
	#DEBUG_VALUE: initialize_polynomial:x1 <- $edx
	#DEBUG_VALUE: initialize_polynomial:y0 <- $ecx
	#DEBUG_VALUE: initialize_polynomial:y1 <- $r8d
	#DEBUG_VALUE: initialize_polynomial:z0 <- $r9d
	pushq	%rbp
	.cfi_def_cfa_offset 16
	pushq	%r15
	.cfi_def_cfa_offset 24
	pushq	%r14
	.cfi_def_cfa_offset 32
	pushq	%r13
	.cfi_def_cfa_offset 40
	pushq	%r12
	.cfi_def_cfa_offset 48
	pushq	%rbx
	.cfi_def_cfa_offset 56
	subq	$264, %rsp                      # imm = 0x108
	.cfi_def_cfa_offset 320
	.cfi_offset %rbx, -56
	.cfi_offset %r12, -48
	.cfi_offset %r13, -40
	.cfi_offset %r14, -32
	.cfi_offset %r15, -24
	.cfi_offset %rbp, -16
.Ltmp105:
	#DEBUG_VALUE: initialize_polynomial:z1 <- [DW_OP_plus_uconst 320] [$rsp+0]
	#DEBUG_VALUE: initialize_polynomial:line <- [DW_OP_plus_uconst 328] [$rsp+0]
	#DEBUG_VALUE: initialize_polynomial:slice <- [DW_OP_plus_uconst 336] [$rsp+0]
	movl	%r9d, %ebx
	movl	%r8d, %r14d
	movl	%ecx, %ebp
	movl	%edx, %r15d
	movl	%esi, %r12d
	movss	%xmm3, 4(%rsp)                  # 4-byte Spill
.Ltmp106:
	#DEBUG_VALUE: initialize_polynomial:s <- [DW_OP_plus_uconst 4, DW_OP_deref_size 16, DW_OP_stack_value, DW_OP_LLVM_fragment 64 32] $rsp
	movaps	%xmm2, 240(%rsp)                # 16-byte Spill
	movss	%xmm1, (%rsp)                   # 4-byte Spill
.Ltmp107:
	#DEBUG_VALUE: initialize_polynomial:a <- [DW_OP_deref_size 16, DW_OP_stack_value, DW_OP_LLVM_fragment 64 32] $rsp
	movaps	%xmm0, 224(%rsp)                # 16-byte Spill
	movq	%rdi, %r13
	movl	320(%rsp), %esi
.Ltmp108:
	#DEBUG_VALUE: initialize_polynomial:x0 <- $r12d
	#DEBUG_VALUE: dim3:_z <- $esi
	#DEBUG_VALUE: initialize_polynomial:grid <- [DW_OP_LLVM_fragment 64 32] $esi
	#DEBUG_VALUE: initialize_polynomial:s <- [DW_OP_plus_uconst 240, DW_OP_deref_size 16, DW_OP_stack_value, DW_OP_LLVM_fragment 0 64] $rsp
	#DEBUG_VALUE: initialize_polynomial:a <- [DW_OP_plus_uconst 224, DW_OP_deref_size 16, DW_OP_stack_value, DW_OP_LLVM_fragment 0 64] $rsp
	#DEBUG_VALUE: dim3:_y <- $r14d
	#DEBUG_VALUE: ceil:x <- $r15d
	#DEBUG_VALUE: dim3:_x <- 256
	#DEBUG_VALUE: dim3:_y <- 1
	#DEBUG_VALUE: dim3:_z <- 1
	#DEBUG_VALUE: initialize_polynomial:block <- [DW_OP_LLVM_fragment 0 32] 256
	#DEBUG_VALUE: initialize_polynomial:block <- [DW_OP_LLVM_fragment 32 32] 4294967552
	#DEBUG_VALUE: initialize_polynomial:block <- [DW_OP_LLVM_fragment 64 32] 1
	#DEBUG_VALUE: ceil:y <- 256
	.loc	6 69 15 prologue_end            # ./helper.hpp:69:15
	leal	-1(%r15), %eax
	.loc	6 69 20 is_stmt 0               # ./helper.hpp:69:20
	leal	254(%r15), %ecx
.Ltmp109:
	#DEBUG_VALUE: initialize_polynomial:y0 <- $ebp
	testl	%eax, %eax
	cmovnsl	%eax, %ecx
	sarl	$8, %ecx
	.loc	6 69 24                         # ./helper.hpp:69:24
	incl	%ecx
.Ltmp110:
	#DEBUG_VALUE: dim3:_x <- $ecx
	#DEBUG_VALUE: ceil:y <- 1
	#DEBUG_VALUE: ceil:y <- 1
	#DEBUG_VALUE: initialize_polynomial:grid <- [DW_OP_LLVM_fragment 0 32] $ecx
	.loc	18 1043 126 is_stmt 1           # /opt/rocm-6.1.1/include/hip/hip_runtime_api.h:1043:126
	movq	%r14, %rdi
.Ltmp111:
	#DEBUG_VALUE: initialize_polynomial:out <- $r13
	shlq	$32, %rdi
	orq	%rcx, %rdi
.Ltmp112:
	#DEBUG_VALUE: initialize_polynomial:grid <- [DW_OP_LLVM_fragment 32 32] $rdi
	.loc	18 0 126 is_stmt 0              # /opt/rocm-6.1.1/include/hip/hip_runtime_api.h:0:126
	movabsq	$4294967552, %rdx               # imm = 0x100000100
.Ltmp113:
	#DEBUG_VALUE: initialize_polynomial:x1 <- $r15d
	.loc	4 25 37 is_stmt 1               # ./initialize.hpp:25:37
	movl	$1, %ecx
.Ltmp114:
	xorl	%r8d, %r8d
.Ltmp115:
	#DEBUG_VALUE: initialize_polynomial:y1 <- $r14d
	xorl	%r9d, %r9d
.Ltmp116:
	#DEBUG_VALUE: initialize_polynomial:z0 <- $ebx
	callq	__hipPushCallConfiguration
.Ltmp117:
	testl	%eax, %eax
	.loc	4 25 9 is_stmt 0                # ./initialize.hpp:25:9
	jne	.LBB8_2
.Ltmp118:
# %bb.1:
	#DEBUG_VALUE: initialize_polynomial:a <- [DW_OP_deref_size 16, DW_OP_stack_value, DW_OP_LLVM_fragment 64 32] $rsp
	#DEBUG_VALUE: initialize_polynomial:s <- [DW_OP_plus_uconst 4, DW_OP_deref_size 16, DW_OP_stack_value, DW_OP_LLVM_fragment 64 32] $rsp
	#DEBUG_VALUE: initialize_polynomial:out <- $r13
	#DEBUG_VALUE: initialize_polynomial:x0 <- $r12d
	#DEBUG_VALUE: initialize_polynomial:x1 <- $r15d
	#DEBUG_VALUE: initialize_polynomial:y0 <- $ebp
	#DEBUG_VALUE: initialize_polynomial:y1 <- $r14d
	#DEBUG_VALUE: initialize_polynomial:z0 <- $ebx
	#DEBUG_VALUE: initialize_polynomial:z1 <- [DW_OP_plus_uconst 320] [$rsp+0]
	#DEBUG_VALUE: initialize_polynomial:line <- [DW_OP_plus_uconst 328] [$rsp+0]
	#DEBUG_VALUE: initialize_polynomial:slice <- [DW_OP_plus_uconst 336] [$rsp+0]
	#DEBUG_VALUE: initialize_polynomial:s <- [DW_OP_plus_uconst 240, DW_OP_deref_size 16, DW_OP_stack_value, DW_OP_LLVM_fragment 0 64] $rsp
	#DEBUG_VALUE: initialize_polynomial:a <- [DW_OP_plus_uconst 224, DW_OP_deref_size 16, DW_OP_stack_value, DW_OP_LLVM_fragment 0 64] $rsp
	#DEBUG_VALUE: initialize_polynomial:block <- [DW_OP_LLVM_fragment 0 32] 256
	#DEBUG_VALUE: initialize_polynomial:block <- [DW_OP_LLVM_fragment 32 32] 4294967552
	#DEBUG_VALUE: initialize_polynomial:block <- [DW_OP_LLVM_fragment 64 32] 1
	.loc	4 0 9                           # ./initialize.hpp:0:9
	movl	336(%rsp), %eax
	movl	328(%rsp), %ecx
	movaps	224(%rsp), %xmm0                # 16-byte Reload
	.loc	4 25 9                          # ./initialize.hpp:25:9
	movlps	%xmm0, 112(%rsp)
	movss	(%rsp), %xmm0                   # 4-byte Reload
                                        # xmm0 = mem[0],zero,zero,zero
	movss	%xmm0, 120(%rsp)
	movaps	240(%rsp), %xmm0                # 16-byte Reload
	movlps	%xmm0, 96(%rsp)
	movss	4(%rsp), %xmm0                  # 4-byte Reload
                                        # xmm0 = mem[0],zero,zero,zero
	movss	%xmm0, 104(%rsp)
	movq	%r13, 88(%rsp)
	movl	%r12d, 36(%rsp)
	movl	%r15d, 32(%rsp)
	movl	%ebp, 28(%rsp)
	movl	%r14d, 24(%rsp)
	movl	%ebx, 20(%rsp)
	movl	320(%rsp), %edx
	movl	%edx, 16(%rsp)
	movl	%ecx, 12(%rsp)
	movl	%eax, 8(%rsp)
	leaq	88(%rsp), %rax
	movq	%rax, 128(%rsp)
	leaq	112(%rsp), %rax
	movq	%rax, 136(%rsp)
	leaq	96(%rsp), %rax
	movq	%rax, 144(%rsp)
	leaq	36(%rsp), %rax
	movq	%rax, 152(%rsp)
	leaq	32(%rsp), %rax
	movq	%rax, 160(%rsp)
	leaq	28(%rsp), %rax
	movq	%rax, 168(%rsp)
	leaq	24(%rsp), %rax
	movq	%rax, 176(%rsp)
	leaq	20(%rsp), %rax
	movq	%rax, 184(%rsp)
	leaq	16(%rsp), %rax
	movq	%rax, 192(%rsp)
	leaq	12(%rsp), %rax
	movq	%rax, 200(%rsp)
	leaq	8(%rsp), %rax
	movq	%rax, 208(%rsp)
	leaq	72(%rsp), %rdi
	leaq	56(%rsp), %rsi
	leaq	48(%rsp), %rdx
	leaq	40(%rsp), %rcx
	callq	__hipPopCallConfiguration
.Ltmp119:
	movq	72(%rsp), %rsi
	movl	80(%rsp), %edx
	movq	56(%rsp), %rcx
	movl	64(%rsp), %r8d
	leaq	128(%rsp), %r9
	movl	$_Z28initialize_polynomial_kernelPf15HIP_vector_typeIfLj3EES1_iiiiiiii, %edi
	pushq	40(%rsp)
.Ltmp120:
	.cfi_adjust_cfa_offset 8
	pushq	56(%rsp)
	.cfi_adjust_cfa_offset 8
	callq	hipLaunchKernel
.Ltmp121:
	addq	$16, %rsp
	.cfi_adjust_cfa_offset -16
.Ltmp122:
.LBB8_2:
	#DEBUG_VALUE: initialize_polynomial:a <- [DW_OP_deref_size 16, DW_OP_stack_value, DW_OP_LLVM_fragment 64 32] $rsp
	#DEBUG_VALUE: initialize_polynomial:s <- [DW_OP_plus_uconst 4, DW_OP_deref_size 16, DW_OP_stack_value, DW_OP_LLVM_fragment 64 32] $rsp
	#DEBUG_VALUE: initialize_polynomial:out <- $r13
	#DEBUG_VALUE: initialize_polynomial:x0 <- $r12d
	#DEBUG_VALUE: initialize_polynomial:x1 <- $r15d
	#DEBUG_VALUE: initialize_polynomial:y0 <- $ebp
	#DEBUG_VALUE: initialize_polynomial:y1 <- $r14d
	#DEBUG_VALUE: initialize_polynomial:z0 <- $ebx
	#DEBUG_VALUE: initialize_polynomial:s <- [DW_OP_plus_uconst 240, DW_OP_deref_size 16, DW_OP_stack_value, DW_OP_LLVM_fragment 0 64] $rsp
	#DEBUG_VALUE: initialize_polynomial:a <- [DW_OP_plus_uconst 224, DW_OP_deref_size 16, DW_OP_stack_value, DW_OP_LLVM_fragment 0 64] $rsp
	#DEBUG_VALUE: initialize_polynomial:block <- [DW_OP_LLVM_fragment 0 32] 256
	#DEBUG_VALUE: initialize_polynomial:block <- [DW_OP_LLVM_fragment 32 32] 4294967552
	#DEBUG_VALUE: initialize_polynomial:block <- [DW_OP_LLVM_fragment 64 32] 1
	.loc	4 26 14 is_stmt 1               # ./initialize.hpp:26:14
	callq	hipGetLastError
.Ltmp123:
	.loc	4 26 32 is_stmt 0               # ./initialize.hpp:26:32
	testl	%eax, %eax
.Ltmp124:
	.loc	4 26 14                         # ./initialize.hpp:26:14
	jne	.LBB8_4
.Ltmp125:
# %bb.3:
	#DEBUG_VALUE: initialize_polynomial:a <- [DW_OP_deref_size 16, DW_OP_stack_value, DW_OP_LLVM_fragment 64 32] $rsp
	#DEBUG_VALUE: initialize_polynomial:s <- [DW_OP_plus_uconst 4, DW_OP_deref_size 16, DW_OP_stack_value, DW_OP_LLVM_fragment 64 32] $rsp
	#DEBUG_VALUE: initialize_polynomial:out <- $r13
	#DEBUG_VALUE: initialize_polynomial:x0 <- $r12d
	#DEBUG_VALUE: initialize_polynomial:x1 <- $r15d
	#DEBUG_VALUE: initialize_polynomial:y0 <- $ebp
	#DEBUG_VALUE: initialize_polynomial:y1 <- $r14d
	#DEBUG_VALUE: initialize_polynomial:z0 <- $ebx
	#DEBUG_VALUE: initialize_polynomial:s <- [DW_OP_plus_uconst 240, DW_OP_deref_size 16, DW_OP_stack_value, DW_OP_LLVM_fragment 0 64] $rsp
	#DEBUG_VALUE: initialize_polynomial:a <- [DW_OP_plus_uconst 224, DW_OP_deref_size 16, DW_OP_stack_value, DW_OP_LLVM_fragment 0 64] $rsp
	#DEBUG_VALUE: initialize_polynomial:block <- [DW_OP_LLVM_fragment 0 32] 256
	#DEBUG_VALUE: initialize_polynomial:block <- [DW_OP_LLVM_fragment 32 32] 4294967552
	#DEBUG_VALUE: initialize_polynomial:block <- [DW_OP_LLVM_fragment 64 32] 1
	.loc	4 28 1 epilogue_begin is_stmt 1 # ./initialize.hpp:28:1
	addq	$264, %rsp                      # imm = 0x108
	.cfi_def_cfa_offset 56
	popq	%rbx
.Ltmp126:
	#DEBUG_VALUE: initialize_polynomial:z0 <- [DW_OP_LLVM_entry_value 1] $r9d
	.cfi_def_cfa_offset 48
	popq	%r12
.Ltmp127:
	#DEBUG_VALUE: initialize_polynomial:x0 <- [DW_OP_LLVM_entry_value 1] $esi
	.cfi_def_cfa_offset 40
	popq	%r13
.Ltmp128:
	#DEBUG_VALUE: initialize_polynomial:out <- [DW_OP_LLVM_entry_value 1] $rdi
	.cfi_def_cfa_offset 32
	popq	%r14
.Ltmp129:
	#DEBUG_VALUE: initialize_polynomial:y1 <- [DW_OP_LLVM_entry_value 1] $r8d
	.cfi_def_cfa_offset 24
	popq	%r15
.Ltmp130:
	#DEBUG_VALUE: initialize_polynomial:x1 <- [DW_OP_LLVM_entry_value 1] $edx
	.cfi_def_cfa_offset 16
	popq	%rbp
.Ltmp131:
	#DEBUG_VALUE: initialize_polynomial:y0 <- [DW_OP_LLVM_entry_value 1] $ecx
	.cfi_def_cfa_offset 8
	retq
.Ltmp132:
.LBB8_4:
	.cfi_def_cfa_offset 320
	#DEBUG_VALUE: initialize_polynomial:a <- [DW_OP_deref_size 16, DW_OP_stack_value, DW_OP_LLVM_fragment 64 32] $rsp
	#DEBUG_VALUE: initialize_polynomial:s <- [DW_OP_plus_uconst 4, DW_OP_deref_size 16, DW_OP_stack_value, DW_OP_LLVM_fragment 64 32] $rsp
	#DEBUG_VALUE: initialize_polynomial:out <- $r13
	#DEBUG_VALUE: initialize_polynomial:x0 <- $r12d
	#DEBUG_VALUE: initialize_polynomial:x1 <- $r15d
	#DEBUG_VALUE: initialize_polynomial:y0 <- $ebp
	#DEBUG_VALUE: initialize_polynomial:y1 <- $r14d
	#DEBUG_VALUE: initialize_polynomial:z0 <- $ebx
	#DEBUG_VALUE: initialize_polynomial:s <- [DW_OP_plus_uconst 240, DW_OP_deref_size 16, DW_OP_stack_value, DW_OP_LLVM_fragment 0 64] $rsp
	#DEBUG_VALUE: initialize_polynomial:a <- [DW_OP_plus_uconst 224, DW_OP_deref_size 16, DW_OP_stack_value, DW_OP_LLVM_fragment 0 64] $rsp
	#DEBUG_VALUE: initialize_polynomial:block <- [DW_OP_LLVM_fragment 0 32] 256
	#DEBUG_VALUE: initialize_polynomial:block <- [DW_OP_LLVM_fragment 32 32] 4294967552
	#DEBUG_VALUE: initialize_polynomial:block <- [DW_OP_LLVM_fragment 64 32] 1
	.loc	4 26 59                         # ./initialize.hpp:26:59
	movl	$_ZSt4cerr, %edi
	movl	$.L.str, %esi
	callq	_ZStlsISt11char_traitsIcEERSt13basic_ostreamIcT_ES5_PKc
.Ltmp133:
	movq	%rax, %rbx
.Ltmp134:
	#DEBUG_VALUE: initialize_polynomial:z0 <- [DW_OP_LLVM_entry_value 1] $r9d
	.loc	4 26 97 is_stmt 0               # ./initialize.hpp:26:97
	callq	hipGetLastError
.Ltmp135:
	.loc	4 26 79                         # ./initialize.hpp:26:79
	movl	%eax, %edi
	callq	hipGetErrorString
.Ltmp136:
	.loc	4 26 76                         # ./initialize.hpp:26:76
	movq	%rbx, %rdi
	movq	%rax, %rsi
	callq	_ZStlsISt11char_traitsIcEERSt13basic_ostreamIcT_ES5_PKc
.Ltmp137:
	.loc	4 26 116                        # ./initialize.hpp:26:116
	movl	$.L.str.1, %esi
	movq	%rax, %rdi
	callq	_ZStlsISt11char_traitsIcEERSt13basic_ostreamIcT_ES5_PKc
.Ltmp138:
	.loc	4 26 131                        # ./initialize.hpp:26:131
	movl	$.L.str.9, %esi
	movq	%rax, %rdi
	callq	_ZStlsISt11char_traitsIcEERSt13basic_ostreamIcT_ES5_PKc
.Ltmp139:
	.loc	4 26 153                        # ./initialize.hpp:26:153
	movl	$.L.str.3, %esi
	movq	%rax, %rdi
	callq	_ZStlsISt11char_traitsIcEERSt13basic_ostreamIcT_ES5_PKc
.Ltmp140:
	.loc	4 26 160                        # ./initialize.hpp:26:160
	movq	%rax, %rdi
	movl	$26, %esi
	callq	_ZNSolsEi
.Ltmp141:
	#DEBUG_VALUE: operator<<:this <- $rax
	.loc	27 113 9 is_stmt 1              # /usr/lib/gcc/x86_64-redhat-linux/8/../../../../include/c++/8/ostream:113:9
	movq	%rax, %rdi
	callq	_ZSt4endlIcSt11char_traitsIcEERSt13basic_ostreamIT_T0_ES6_
.Ltmp142:
	#DEBUG_VALUE: operator<<:__pf <- undef
	.loc	4 26 180                        # ./initialize.hpp:26:180
	movl	$-1, %edi
	callq	exit
.Ltmp143:
.Lfunc_end8:
	.size	_Z21initialize_polynomialPf15HIP_vector_typeIfLj3EES1_iiiiiiii, .Lfunc_end8-_Z21initialize_polynomialPf15HIP_vector_typeIfLj3EES1_iiiiiiii
	.cfi_endproc
                                        # -- End function
	.section	.rodata.cst16,"aM",@progbits,16
	.p2align	4, 0x0                          # -- Begin function main
.LCPI9_0:
	.long	0xbaea0ea1                      # float -0.0017857143
	.long	0x3cd00d01                      # float 0.0253968257
	.long	0xbe4ccccd                      # float -0.200000003
	.long	0x3fcccccd                      # float 1.60000002
.LCPI9_1:
	.long	0xc03638e4                      # float -2.84722233
	.long	0x3fcccccd                      # float 1.60000002
	.long	0xbe4ccccd                      # float -0.200000003
	.long	0x3cd00d01                      # float 0.0253968257
.LCPI9_2:
	.long	0x3f800000                      # float 1
	.long	0x3f800000                      # float 1
	.zero	4
	.zero	4
	.section	.rodata.cst4,"aM",@progbits,4
	.p2align	2, 0x0
.LCPI9_3:
	.long	0x3f800000                      # float 1
	.section	.rodata.cst8,"aM",@progbits,8
	.p2align	3, 0x0
.LCPI9_4:
	.quad	0x4010000000000000              # double 4
.LCPI9_5:
	.quad	0x412e848000000000              # double 1.0E+6
	.text
	.globl	main
	.p2align	4, 0x90
	.type	main,@function
main:                                   # @main
.Lfunc_begin9:
	.loc	5 29 0                          # stencils.cpp:29:0
	.cfi_startproc
# %bb.0:
	#DEBUG_VALUE: main:argc <- $edi
	#DEBUG_VALUE: main:argv <- $rsi
	pushq	%rbp
	.cfi_def_cfa_offset 16
	pushq	%r15
	.cfi_def_cfa_offset 24
	pushq	%r14
	.cfi_def_cfa_offset 32
	pushq	%r13
	.cfi_def_cfa_offset 40
	pushq	%r12
	.cfi_def_cfa_offset 48
	pushq	%rbx
	.cfi_def_cfa_offset 56
	subq	$232, %rsp
	.cfi_def_cfa_offset 288
	.cfi_offset %rbx, -56
	.cfi_offset %r12, -48
	.cfi_offset %r13, -40
	.cfi_offset %r14, -32
	.cfi_offset %r15, -24
	.cfi_offset %rbp, -16
.Ltmp144:
	#DEBUG_VALUE: main:d <- [DW_OP_plus_uconst 160, DW_OP_deref] $rsp
	#DEBUG_VALUE: main:nx <- 512
	#DEBUG_VALUE: main:ny <- 512
	#DEBUG_VALUE: main:nz <- 512
	#DEBUG_VALUE: main:nt <- 100
	#DEBUG_VALUE: main:nw <- 1
	#DEBUG_VALUE: main:align <- 1
	#DEBUG_VALUE: main:use_offset <- 0
	xorl	%r10d, %r10d
	movl	$512, %ebx                      # imm = 0x200
	movl	$100, 52(%rsp)                  # 4-byte Folded Spill
	movl	$1, %r15d
.Ltmp145:
	.loc	5 43 14 prologue_end            # stencils.cpp:43:14
	cmpl	$2, %edi
.Ltmp146:
	.loc	5 43 9 is_stmt 0                # stencils.cpp:43:9
	jl	.LBB9_3
.Ltmp147:
# %bb.1:
	#DEBUG_VALUE: main:argc <- $edi
	#DEBUG_VALUE: main:argv <- $rsi
	#DEBUG_VALUE: main:d <- [DW_OP_plus_uconst 160, DW_OP_deref] $rsp
	#DEBUG_VALUE: main:nx <- 512
	#DEBUG_VALUE: main:ny <- 512
	#DEBUG_VALUE: main:nz <- 512
	#DEBUG_VALUE: main:nt <- 100
	#DEBUG_VALUE: main:nw <- 1
	#DEBUG_VALUE: main:align <- 1
	#DEBUG_VALUE: main:use_offset <- 0
	.loc	5 0 9                           # stencils.cpp:0:9
	movq	%rsi, %r13
	movl	%edi, %r12d
.Ltmp148:
	.loc	5 44 19 is_stmt 1               # stencils.cpp:44:19
	movq	8(%rsi), %rdi
.Ltmp149:
	#DEBUG_VALUE: main:argc <- $r12d
	#DEBUG_VALUE: atof:__nptr <- $rdi
	.file	30 "/usr/include/bits" "stdlib-float.h"
	.loc	30 27 10                        # /usr/include/bits/stdlib-float.h:27:10
	xorl	%esi, %esi
.Ltmp150:
	#DEBUG_VALUE: main:argv <- $r13
	callq	strtod
.Ltmp151:
	.loc	5 44 14                         # stencils.cpp:44:14
	cvttsd2si	%xmm0, %ebp
.Ltmp152:
	#DEBUG_VALUE: main:nx <- $ebp
	.loc	5 45 14                         # stencils.cpp:45:14
	cmpl	$2, %r12d
.Ltmp153:
	.loc	5 45 9 is_stmt 0                # stencils.cpp:45:9
	jne	.LBB9_4
.Ltmp154:
# %bb.2:
	#DEBUG_VALUE: main:argc <- $r12d
	#DEBUG_VALUE: main:argv <- $r13
	#DEBUG_VALUE: main:d <- [DW_OP_plus_uconst 160, DW_OP_deref] $rsp
	#DEBUG_VALUE: main:nx <- $ebp
	#DEBUG_VALUE: main:ny <- 512
	#DEBUG_VALUE: main:nz <- 512
	#DEBUG_VALUE: main:nt <- 100
	#DEBUG_VALUE: main:nw <- 1
	#DEBUG_VALUE: main:align <- 1
	#DEBUG_VALUE: main:use_offset <- 0
	.loc	5 0 9                           # stencils.cpp:0:9
	movl	$512, %r14d                     # imm = 0x200
	jmp	.LBB9_9
.Ltmp155:
.LBB9_3:
	#DEBUG_VALUE: main:argc <- $edi
	#DEBUG_VALUE: main:argv <- $rsi
	#DEBUG_VALUE: main:d <- [DW_OP_plus_uconst 160, DW_OP_deref] $rsp
	#DEBUG_VALUE: main:nx <- 512
	#DEBUG_VALUE: main:ny <- 512
	#DEBUG_VALUE: main:nz <- 512
	#DEBUG_VALUE: main:nt <- 100
	#DEBUG_VALUE: main:nw <- 1
	#DEBUG_VALUE: main:align <- 1
	#DEBUG_VALUE: main:use_offset <- 0
	movl	$512, %r14d                     # imm = 0x200
	movl	$512, %ebp                      # imm = 0x200
	movl	$1, %r9d
	jmp	.LBB9_11
.Ltmp156:
.LBB9_4:
	#DEBUG_VALUE: main:argc <- $r12d
	#DEBUG_VALUE: main:argv <- $r13
	#DEBUG_VALUE: main:d <- [DW_OP_plus_uconst 160, DW_OP_deref] $rsp
	#DEBUG_VALUE: main:nx <- $ebp
	#DEBUG_VALUE: main:ny <- 512
	#DEBUG_VALUE: main:nz <- 512
	#DEBUG_VALUE: main:nt <- 100
	#DEBUG_VALUE: main:nw <- 1
	#DEBUG_VALUE: main:align <- 1
	#DEBUG_VALUE: main:use_offset <- 0
	.loc	5 46 19 is_stmt 1               # stencils.cpp:46:19
	movq	16(%r13), %rdi
.Ltmp157:
	#DEBUG_VALUE: atof:__nptr <- $rdi
	.loc	30 27 10                        # /usr/include/bits/stdlib-float.h:27:10
	xorl	%esi, %esi
	callq	strtod
.Ltmp158:
	.loc	5 46 14                         # stencils.cpp:46:14
	cvttsd2si	%xmm0, %r14d
.Ltmp159:
	#DEBUG_VALUE: main:ny <- $r14d
	.loc	5 47 14                         # stencils.cpp:47:14
	cmpl	$4, %r12d
.Ltmp160:
	.loc	5 47 9 is_stmt 0                # stencils.cpp:47:9
	jb	.LBB9_9
.Ltmp161:
# %bb.5:
	#DEBUG_VALUE: main:argc <- $r12d
	#DEBUG_VALUE: main:argv <- $r13
	#DEBUG_VALUE: main:d <- [DW_OP_plus_uconst 160, DW_OP_deref] $rsp
	#DEBUG_VALUE: main:nx <- $ebp
	#DEBUG_VALUE: main:ny <- $r14d
	#DEBUG_VALUE: main:nz <- 512
	#DEBUG_VALUE: main:nt <- 100
	#DEBUG_VALUE: main:nw <- 1
	#DEBUG_VALUE: main:align <- 1
	#DEBUG_VALUE: main:use_offset <- 0
	.loc	5 48 19 is_stmt 1               # stencils.cpp:48:19
	movq	24(%r13), %rdi
.Ltmp162:
	#DEBUG_VALUE: atof:__nptr <- $rdi
	.loc	30 27 10                        # /usr/include/bits/stdlib-float.h:27:10
	xorl	%esi, %esi
	callq	strtod
.Ltmp163:
	.loc	5 48 14                         # stencils.cpp:48:14
	cvttsd2si	%xmm0, %ebx
.Ltmp164:
	#DEBUG_VALUE: main:nz <- $ebx
	.loc	5 49 14                         # stencils.cpp:49:14
	cmpl	$4, %r12d
.Ltmp165:
	.loc	5 49 9 is_stmt 0                # stencils.cpp:49:9
	je	.LBB9_9
.Ltmp166:
# %bb.6:
	#DEBUG_VALUE: main:argc <- $r12d
	#DEBUG_VALUE: main:argv <- $r13
	#DEBUG_VALUE: main:d <- [DW_OP_plus_uconst 160, DW_OP_deref] $rsp
	#DEBUG_VALUE: main:nx <- $ebp
	#DEBUG_VALUE: main:ny <- $r14d
	#DEBUG_VALUE: main:nz <- $ebx
	#DEBUG_VALUE: main:nt <- 100
	#DEBUG_VALUE: main:nw <- 1
	#DEBUG_VALUE: main:align <- 1
	#DEBUG_VALUE: main:use_offset <- 0
	.loc	5 50 19 is_stmt 1               # stencils.cpp:50:19
	movq	32(%r13), %rdi
.Ltmp167:
	#DEBUG_VALUE: atof:__nptr <- $rdi
	.loc	30 27 10                        # /usr/include/bits/stdlib-float.h:27:10
	xorl	%esi, %esi
	callq	strtod
.Ltmp168:
	.loc	5 50 14                         # stencils.cpp:50:14
	cvttsd2si	%xmm0, %eax
.Ltmp169:
	#DEBUG_VALUE: main:nt <- $eax
	.loc	5 0 14 is_stmt 0                # stencils.cpp:0:14
	movl	%eax, 52(%rsp)                  # 4-byte Spill
.Ltmp170:
	#DEBUG_VALUE: main:nt <- [DW_OP_plus_uconst 52, DW_OP_deref] $rsp
	.loc	5 51 14 is_stmt 1               # stencils.cpp:51:14
	cmpl	$6, %r12d
.Ltmp171:
	.loc	5 51 9 is_stmt 0                # stencils.cpp:51:9
	jb	.LBB9_9
.Ltmp172:
# %bb.7:
	#DEBUG_VALUE: main:argc <- $r12d
	#DEBUG_VALUE: main:argv <- $r13
	#DEBUG_VALUE: main:d <- [DW_OP_plus_uconst 160, DW_OP_deref] $rsp
	#DEBUG_VALUE: main:nx <- $ebp
	#DEBUG_VALUE: main:ny <- $r14d
	#DEBUG_VALUE: main:nz <- $ebx
	#DEBUG_VALUE: main:nt <- [DW_OP_plus_uconst 52, DW_OP_deref] $rsp
	#DEBUG_VALUE: main:nw <- 1
	#DEBUG_VALUE: main:align <- 1
	#DEBUG_VALUE: main:use_offset <- 0
	.loc	5 52 19 is_stmt 1               # stencils.cpp:52:19
	movq	40(%r13), %rdi
.Ltmp173:
	#DEBUG_VALUE: atof:__nptr <- $rdi
	.loc	30 27 10                        # /usr/include/bits/stdlib-float.h:27:10
	xorl	%esi, %esi
	callq	strtod
.Ltmp174:
	.loc	5 52 14                         # stencils.cpp:52:14
	cvttsd2si	%xmm0, %r9d
.Ltmp175:
	#DEBUG_VALUE: main:nw <- $r9d
	.loc	5 53 14                         # stencils.cpp:53:14
	cmpl	$6, %r12d
.Ltmp176:
	.loc	5 53 9 is_stmt 0                # stencils.cpp:53:9
	je	.LBB9_10
.Ltmp177:
# %bb.127:
	#DEBUG_VALUE: main:argc <- $r12d
	#DEBUG_VALUE: main:argv <- $r13
	#DEBUG_VALUE: main:d <- [DW_OP_plus_uconst 160, DW_OP_deref] $rsp
	#DEBUG_VALUE: main:nx <- $ebp
	#DEBUG_VALUE: main:ny <- $r14d
	#DEBUG_VALUE: main:nz <- $ebx
	#DEBUG_VALUE: main:nt <- [DW_OP_plus_uconst 52, DW_OP_deref] $rsp
	#DEBUG_VALUE: main:nw <- $r9d
	#DEBUG_VALUE: main:align <- 1
	#DEBUG_VALUE: main:use_offset <- 0
	.loc	5 0 9                           # stencils.cpp:0:9
	movq	%r9, 112(%rsp)                  # 8-byte Spill
.Ltmp178:
	#DEBUG_VALUE: main:nw <- [DW_OP_plus_uconst 112, DW_OP_deref] $rsp
	.loc	5 54 22 is_stmt 1               # stencils.cpp:54:22
	movq	48(%r13), %rdi
.Ltmp179:
	#DEBUG_VALUE: atoi:__nptr <- $rdi
	.loc	29 363 16                       # /usr/include/stdlib.h:363:16
	xorl	%esi, %esi
	movl	$10, %edx
	callq	strtol
.Ltmp180:
	movq	%rax, %r15
.Ltmp181:
	#DEBUG_VALUE: main:align <- $r15d
	.loc	5 55 14                         # stencils.cpp:55:14
	cmpl	$8, %r12d
.Ltmp182:
	.loc	5 55 9 is_stmt 0                # stencils.cpp:55:9
	jb	.LBB9_129
.Ltmp183:
# %bb.128:
	#DEBUG_VALUE: main:argc <- $r12d
	#DEBUG_VALUE: main:argv <- $r13
	#DEBUG_VALUE: main:d <- [DW_OP_plus_uconst 160, DW_OP_deref] $rsp
	#DEBUG_VALUE: main:nx <- $ebp
	#DEBUG_VALUE: main:ny <- $r14d
	#DEBUG_VALUE: main:nz <- $ebx
	#DEBUG_VALUE: main:nt <- [DW_OP_plus_uconst 52, DW_OP_deref] $rsp
	#DEBUG_VALUE: main:nw <- [DW_OP_plus_uconst 112, DW_OP_deref] $rsp
	#DEBUG_VALUE: main:align <- $r15d
	#DEBUG_VALUE: main:use_offset <- 0
	.loc	5 56 27 is_stmt 1               # stencils.cpp:56:27
	movq	56(%r13), %rdi
.Ltmp184:
	#DEBUG_VALUE: atoi:__nptr <- $rdi
	.loc	29 363 16                       # /usr/include/stdlib.h:363:16
	xorl	%esi, %esi
	movl	$10, %edx
	callq	strtol
.Ltmp185:
	movq	%rax, %r10
.Ltmp186:
	#DEBUG_VALUE: main:use_offset <- $r10d
	.loc	29 0 16 is_stmt 0               # /usr/include/stdlib.h:0:16
	movq	112(%rsp), %r9                  # 8-byte Reload
	jmp	.LBB9_11
.Ltmp187:
.LBB9_9:
	#DEBUG_VALUE: main:argc <- $r12d
	#DEBUG_VALUE: main:argv <- $r13
	#DEBUG_VALUE: main:d <- [DW_OP_plus_uconst 160, DW_OP_deref] $rsp
	#DEBUG_VALUE: main:nx <- $ebp
	#DEBUG_VALUE: main:nw <- 1
	#DEBUG_VALUE: main:align <- 1
	#DEBUG_VALUE: main:use_offset <- 0
	movl	$1, %r9d
.Ltmp188:
.LBB9_10:                               # %.thread473
	#DEBUG_VALUE: main:argc <- $r12d
	#DEBUG_VALUE: main:argv <- $r13
	#DEBUG_VALUE: main:d <- [DW_OP_plus_uconst 160, DW_OP_deref] $rsp
	#DEBUG_VALUE: main:nx <- $ebp
	#DEBUG_VALUE: main:use_offset <- 0
	xorl	%r10d, %r10d
.Ltmp189:
.LBB9_11:                               # %.thread473
	#DEBUG_VALUE: main:argc <- [DW_OP_LLVM_entry_value 1] $edi
	#DEBUG_VALUE: main:argv <- [DW_OP_LLVM_entry_value 1] $rsi
	#DEBUG_VALUE: main:d <- [DW_OP_plus_uconst 160, DW_OP_deref] $rsp
	#DEBUG_VALUE: main:use_offset <- $r10d
	.loc	5 58 5 is_stmt 1                # stencils.cpp:58:5
	movl	$.L.str.10, %edi
	movl	%ebp, %esi
	movl	%r14d, %edx
	movl	%ebx, %ecx
	movl	52(%rsp), %r8d                  # 4-byte Reload
	movq	%r9, 112(%rsp)                  # 8-byte Spill
                                        # kill: def $r9d killed $r9d killed $r9
	xorl	%eax, %eax
	pushq	%r10
.Ltmp190:
	.cfi_adjust_cfa_offset 8
	pushq	%r15
	.cfi_adjust_cfa_offset 8
	movq	%r10, %r13
	callq	printf
.Ltmp191:
	#DEBUG_VALUE: main:use_offset <- $r13d
	#DEBUG_VALUE: main:R <- 4
	#DEBUG_VALUE: main:h <- 1.000000e+00
	#DEBUG_VALUE: fd_coefficients_d2_order_8:dout <- [DW_OP_plus_uconst 160, DW_OP_stack_value] $rsp
	#DEBUG_VALUE: fd_coefficients_d2_order_8:R <- 4
	#DEBUG_VALUE: fd_coefficients_d2_order_8:h <- 1.000000e+00
	#DEBUG_VALUE: fd_coefficients_d2_order_8:scaling <- 1.000000e+00
	#DEBUG_VALUE: main:d <- [DW_OP_LLVM_fragment 0 32] -1.785714e-03
	#DEBUG_VALUE: main:d <- [DW_OP_LLVM_fragment 32 32] 2.539683e-02
	#DEBUG_VALUE: main:d <- [DW_OP_LLVM_fragment 64 32] -2.000000e-01
	#DEBUG_VALUE: main:d <- [DW_OP_plus_uconst 160, DW_OP_plus_uconst 12, DW_OP_deref, DW_OP_LLVM_fragment 96 192] $rsp
	addq	$16, %rsp
.Ltmp192:
	.cfi_adjust_cfa_offset -16
	.loc	3 38 13                         # ./fd_coefficients.hpp:38:13
	movaps	.LCPI9_0(%rip), %xmm0           # xmm0 = [-1.7857143E-3,2.53968257E-2,-2.00000003E-1,1.60000002E+0]
	movaps	%xmm0, 160(%rsp)
.Ltmp193:
	#DEBUG_VALUE: main:d <- [DW_OP_plus_uconst 160, DW_OP_deref] $rsp
	#DEBUG_VALUE: main:d <- [DW_OP_LLVM_fragment 128 32] -2.847222e+00
	#DEBUG_VALUE: main:d <- [DW_OP_plus_uconst 160, DW_OP_deref, DW_OP_LLVM_fragment 0 128] $rsp
	#DEBUG_VALUE: main:d <- [DW_OP_LLVM_fragment 160 32] 1.600000e+00
	#DEBUG_VALUE: main:d <- [DW_OP_LLVM_fragment 192 32] -2.000000e-01
	#DEBUG_VALUE: main:d <- [DW_OP_plus_uconst 160, DW_OP_plus_uconst 28, DW_OP_deref, DW_OP_LLVM_fragment 224 64] $rsp
	.loc	3 42 13                         # ./fd_coefficients.hpp:42:13
	movaps	.LCPI9_1(%rip), %xmm0           # xmm0 = [-2.84722233E+0,1.60000002E+0,-2.00000003E-1,2.53968257E-2]
	movaps	%xmm0, 176(%rsp)
.Ltmp194:
	#DEBUG_VALUE: main:d <- [DW_OP_plus_uconst 160, DW_OP_deref] $rsp
	.loc	3 46 13                         # ./fd_coefficients.hpp:46:13
	movl	$-1159065951, 192(%rsp)         # imm = 0xBAEA0EA1
.Ltmp195:
	#DEBUG_VALUE: main:mx <- undef
	#DEBUG_VALUE: ceil:x <- undef
	#DEBUG_VALUE: ceil:y <- $r15d
	.loc	6 68 28                         # ./helper.hpp:68:28
	testl	%r15d, %r15d
	.loc	6 68 6 is_stmt 0                # ./helper.hpp:68:6
	jle	.LBB9_181
.Ltmp196:
# %bb.12:                               # %_Z4ceilii.exit
	#DEBUG_VALUE: main:argc <- [DW_OP_LLVM_entry_value 1] $edi
	#DEBUG_VALUE: main:argv <- [DW_OP_LLVM_entry_value 1] $rsi
	#DEBUG_VALUE: main:d <- [DW_OP_plus_uconst 160, DW_OP_deref] $rsp
	#DEBUG_VALUE: main:use_offset <- $r13d
	#DEBUG_VALUE: main:R <- 4
	#DEBUG_VALUE: main:h <- 1.000000e+00
	#DEBUG_VALUE: ceil:y <- $r15d
	.loc	6 0 6                           # ./helper.hpp:0:6
	movq	%rbp, 104(%rsp)                 # 8-byte Spill
	.loc	6 69 15 is_stmt 1               # ./helper.hpp:69:15
	leal	7(%rbp), %eax
	.loc	6 69 20 is_stmt 0               # ./helper.hpp:69:20
	cltd
	idivl	%r15d
	.loc	6 69 24                         # ./helper.hpp:69:24
	incl	%eax
.Ltmp197:
	.loc	5 93 26 is_stmt 1               # stencils.cpp:93:26
	imull	%r15d, %eax
.Ltmp198:
	#DEBUG_VALUE: main:mx <- $eax
	.loc	5 0 26 is_stmt 0                # stencils.cpp:0:26
	movq	%r14, 136(%rsp)                 # 8-byte Spill
	.loc	5 94 23 is_stmt 1               # stencils.cpp:94:23
	leal	8(%r14), %edx
.Ltmp199:
	#DEBUG_VALUE: main:my <- $edx
	.loc	5 0 23 is_stmt 0                # stencils.cpp:0:23
	movq	%rbx, 152(%rsp)                 # 8-byte Spill
	.loc	5 95 23 is_stmt 1               # stencils.cpp:95:23
	leal	8(%rbx), %ecx
.Ltmp200:
	#DEBUG_VALUE: main:mz <- $ecx
	#DEBUG_VALUE: main:line <- $eax
	.loc	5 98 26                         # stencils.cpp:98:26
	movl	%eax, %ebx
	imull	%edx, %ebx
.Ltmp201:
	#DEBUG_VALUE: main:slice <- $ebx
	.loc	5 101 30                        # stencils.cpp:101:30
	movslq	%eax, %r14
	.loc	5 101 43 is_stmt 0              # stencils.cpp:101:43
	movslq	%edx, %r12
	.loc	5 101 56                        # stencils.cpp:101:56
	movslq	%ecx, %r15
.Ltmp202:
	.loc	5 0 56                          # stencils.cpp:0:56
	movq	%r15, 8(%rsp)                   # 8-byte Spill
	.loc	5 101 33                        # stencils.cpp:101:33
	imulq	%r12, %r15
	.loc	5 101 46                        # stencils.cpp:101:46
	imulq	%r14, %r15
.Ltmp203:
	#DEBUG_VALUE: main:m <- $r15
	.loc	5 104 14 is_stmt 1              # stencils.cpp:104:14
	cmpl	$5, %r14d
	movl	$4, %ebp
	movl	%eax, 48(%rsp)                  # 4-byte Spill
.Ltmp204:
	#DEBUG_VALUE: main:line <- [DW_OP_plus_uconst 48, DW_OP_deref] $rsp
	#DEBUG_VALUE: main:mx <- [DW_OP_plus_uconst 48, DW_OP_deref] $rsp
	cmovgel	%eax, %ebp
	addl	$-4, %ebp
	.loc	5 103 18                        # stencils.cpp:103:18
	testl	%r13d, %r13d
.Ltmp205:
	#DEBUG_VALUE: main:offset <- undef
	.loc	5 104 14                        # stencils.cpp:104:14
	cmovel	%r13d, %ebp
.Ltmp206:
	#DEBUG_VALUE: main:offset <- $ebp
	.loc	5 0 14 is_stmt 0                # stencils.cpp:0:14
	leaq	80(%rsp), %rdi
	.loc	5 106 20 is_stmt 1              # stencils.cpp:106:20
	movq	%r15, %rsi
	movq	%rbp, %rdx
.Ltmp207:
	callq	_Z5allocIfEvPPT_mm
.Ltmp208:
	.loc	5 0 20 is_stmt 0                # stencils.cpp:0:20
	leaq	32(%rsp), %rdi
	.loc	5 107 21 is_stmt 1              # stencils.cpp:107:21
	movq	%r15, %rsi
	movq	%rbp, %rdx
	callq	_Z5allocIfEvPPT_mm
.Ltmp209:
	.loc	5 0 21 is_stmt 0                # stencils.cpp:0:21
	leaq	72(%rsp), %rdi
	.loc	5 108 21 is_stmt 1              # stencils.cpp:108:21
	movq	%r15, %rsi
	movq	%rbp, 216(%rsp)                 # 8-byte Spill
.Ltmp210:
	#DEBUG_VALUE: main:offset <- [DW_OP_plus_uconst 216, DW_OP_deref] $rsp
	movq	%rbp, %rdx
	callq	_Z5allocIfEvPPT_mm
.Ltmp211:
	#DEBUG_VALUE: main:a <- [DW_OP_LLVM_fragment 64 32] 1.000000e+00
	#DEBUG_VALUE: main:s <- [DW_OP_LLVM_fragment 64 32] 1.000000e+00
	.loc	5 115 27                        # stencils.cpp:115:27
	movq	80(%rsp), %rdi
	.loc	5 115 5 is_stmt 0               # stencils.cpp:115:5
	subq	$8, %rsp
.Ltmp212:
	.cfi_adjust_cfa_offset 8
	movaps	.LCPI9_2(%rip), %xmm0           # xmm0 = <1.0E+0,1.0E+0,u,u>
	movss	.LCPI9_3(%rip), %xmm1           # xmm1 = mem[0],zero,zero,zero
	movaps	%xmm0, %xmm2
	movapd	%xmm1, %xmm3
	xorl	%esi, %esi
	movl	%r14d, %edx
	xorl	%ecx, %ecx
	movl	%r12d, %r8d
	xorl	%r9d, %r9d
	movq	%rbx, 64(%rsp)                  # 8-byte Spill
.Ltmp213:
	#DEBUG_VALUE: main:slice <- [DW_OP_plus_uconst 56, DW_OP_deref] $rsp
	pushq	%rbx
.Ltmp214:
	.cfi_adjust_cfa_offset 8
	pushq	%r14
	movq	%r15, %r14
.Ltmp215:
	#DEBUG_VALUE: main:m <- $r14
	.cfi_adjust_cfa_offset 8
	pushq	32(%rsp)                        # 8-byte Folded Reload
	.cfi_adjust_cfa_offset 8
	callq	_Z21initialize_polynomialPf15HIP_vector_typeIfLj3EES1_iiiiiiii
.Ltmp216:
	#DEBUG_VALUE: main:a <- [DW_OP_LLVM_fragment 0 64] undef
	#DEBUG_VALUE: main:s <- [DW_OP_LLVM_fragment 0 64] undef
	addq	$32, %rsp
	.cfi_adjust_cfa_offset -32
.Ltmp217:
	.loc	5 116 20 is_stmt 1              # stencils.cpp:116:20
	movq	32(%rsp), %rdi
	.loc	5 116 34 is_stmt 0              # stencils.cpp:116:34
	shlq	$2, %r14
.Ltmp218:
	#DEBUG_VALUE: main:m <- $r15
	.loc	5 116 10                        # stencils.cpp:116:10
	xorl	%esi, %esi
	movq	%r14, %rdx
	callq	hipMemset
.Ltmp219:
	.loc	5 116 51                        # stencils.cpp:116:51
	testl	%eax, %eax
.Ltmp220:
	.loc	5 116 10                        # stencils.cpp:116:10
	jne	.LBB9_182
.Ltmp221:
# %bb.13:
	#DEBUG_VALUE: main:argc <- [DW_OP_LLVM_entry_value 1] $edi
	#DEBUG_VALUE: main:argv <- [DW_OP_LLVM_entry_value 1] $rsi
	#DEBUG_VALUE: main:use_offset <- $r13d
	#DEBUG_VALUE: main:R <- 4
	#DEBUG_VALUE: main:h <- 1.000000e+00
	#DEBUG_VALUE: main:mx <- [DW_OP_plus_uconst 48, DW_OP_deref] $rsp
	#DEBUG_VALUE: main:line <- [DW_OP_plus_uconst 48, DW_OP_deref] $rsp
	#DEBUG_VALUE: main:slice <- [DW_OP_plus_uconst 56, DW_OP_deref] $rsp
	#DEBUG_VALUE: main:m <- $r15
	#DEBUG_VALUE: main:offset <- [DW_OP_plus_uconst 216, DW_OP_deref] $rsp
	#DEBUG_VALUE: main:a <- [DW_OP_LLVM_fragment 64 32] 1.000000e+00
	#DEBUG_VALUE: main:s <- [DW_OP_LLVM_fragment 64 32] 1.000000e+00
	.loc	5 117 20 is_stmt 1              # stencils.cpp:117:20
	movq	72(%rsp), %rdi
	.loc	5 117 10 is_stmt 0              # stencils.cpp:117:10
	xorl	%esi, %esi
	movq	%r14, %rdx
	callq	hipMemset
.Ltmp222:
	.loc	5 117 51                        # stencils.cpp:117:51
	testl	%eax, %eax
.Ltmp223:
	.loc	5 117 10                        # stencils.cpp:117:10
	jne	.LBB9_183
.Ltmp224:
# %bb.14:
	#DEBUG_VALUE: main:argc <- [DW_OP_LLVM_entry_value 1] $edi
	#DEBUG_VALUE: main:argv <- [DW_OP_LLVM_entry_value 1] $rsi
	#DEBUG_VALUE: main:use_offset <- $r13d
	#DEBUG_VALUE: main:R <- 4
	#DEBUG_VALUE: main:h <- 1.000000e+00
	#DEBUG_VALUE: main:mx <- [DW_OP_plus_uconst 48, DW_OP_deref] $rsp
	#DEBUG_VALUE: main:line <- [DW_OP_plus_uconst 48, DW_OP_deref] $rsp
	#DEBUG_VALUE: main:slice <- [DW_OP_plus_uconst 56, DW_OP_deref] $rsp
	#DEBUG_VALUE: main:m <- $r15
	#DEBUG_VALUE: main:offset <- [DW_OP_plus_uconst 216, DW_OP_deref] $rsp
	#DEBUG_VALUE: main:a <- [DW_OP_LLVM_fragment 64 32] 1.000000e+00
	#DEBUG_VALUE: main:s <- [DW_OP_LLVM_fragment 64 32] 1.000000e+00
	.loc	5 120 10 is_stmt 1              # stencils.cpp:120:10
	callq	hipDeviceSynchronize
.Ltmp225:
	.loc	5 120 33 is_stmt 0              # stencils.cpp:120:33
	testl	%eax, %eax
	movq	136(%rsp), %r15                 # 8-byte Reload
.Ltmp226:
	.loc	5 0 33                          # stencils.cpp:0:33
	movq	104(%rsp), %r12                 # 8-byte Reload
.Ltmp227:
	.loc	5 120 10                        # stencils.cpp:120:10
	jne	.LBB9_184
.Ltmp228:
# %bb.15:
	#DEBUG_VALUE: main:argc <- [DW_OP_LLVM_entry_value 1] $edi
	#DEBUG_VALUE: main:argv <- [DW_OP_LLVM_entry_value 1] $rsi
	#DEBUG_VALUE: main:use_offset <- $r13d
	#DEBUG_VALUE: main:R <- 4
	#DEBUG_VALUE: main:h <- 1.000000e+00
	#DEBUG_VALUE: main:mx <- [DW_OP_plus_uconst 48, DW_OP_deref] $rsp
	#DEBUG_VALUE: main:line <- [DW_OP_plus_uconst 48, DW_OP_deref] $rsp
	#DEBUG_VALUE: main:slice <- [DW_OP_plus_uconst 56, DW_OP_deref] $rsp
	#DEBUG_VALUE: main:offset <- [DW_OP_plus_uconst 216, DW_OP_deref] $rsp
	#DEBUG_VALUE: main:a <- [DW_OP_LLVM_fragment 64 32] 1.000000e+00
	#DEBUG_VALUE: main:s <- [DW_OP_LLVM_fragment 64 32] 1.000000e+00
	.loc	5 0 10                          # stencils.cpp:0:10
	leaq	160(%rsp), %rbx
	.loc	5 122 5 is_stmt 1               # stencils.cpp:122:5
	movq	%rbx, %rdi
	movq	%rbx, %rsi
	callq	_Z14init_fd_xy_gpuILi4EEvPKfS1_
.Ltmp229:
	.loc	5 123 5                         # stencils.cpp:123:5
	movq	%rbx, %rdi
	callq	_Z13init_fd_z_gpuILi4EEvPKf
.Ltmp230:
	#DEBUG_VALUE: main:theoretical_fetch_x <- undef
	#DEBUG_VALUE: main:theoretical_fetch_y <- undef
	#DEBUG_VALUE: main:theoretical_fetch_z <- undef
	#DEBUG_VALUE: main:theoretical_fetch_xy <- undef
	#DEBUG_VALUE: main:theoretical_fetch_xyz <- undef
	#DEBUG_VALUE: main:theoretical_write <- undef
	#DEBUG_VALUE: main:total_bytes_x <- undef
	#DEBUG_VALUE: main:total_bytes_y <- undef
	#DEBUG_VALUE: main:total_bytes_z <- undef
	#DEBUG_VALUE: main:total_bytes_xy <- undef
	#DEBUG_VALUE: main:total_bytes_xyz <- undef
	.loc	5 0 5 is_stmt 0                 # stencils.cpp:0:5
	leaq	40(%rsp), %rdi
.Ltmp231:
	.loc	5 139 10 is_stmt 1              # stencils.cpp:139:10
	callq	hipEventCreate
.Ltmp232:
	.loc	5 139 33 is_stmt 0              # stencils.cpp:139:33
	testl	%eax, %eax
.Ltmp233:
	.loc	5 139 10                        # stencils.cpp:139:10
	jne	.LBB9_185
.Ltmp234:
# %bb.16:
	#DEBUG_VALUE: main:argc <- [DW_OP_LLVM_entry_value 1] $edi
	#DEBUG_VALUE: main:argv <- [DW_OP_LLVM_entry_value 1] $rsi
	#DEBUG_VALUE: main:use_offset <- $r13d
	#DEBUG_VALUE: main:R <- 4
	#DEBUG_VALUE: main:h <- 1.000000e+00
	#DEBUG_VALUE: main:mx <- [DW_OP_plus_uconst 48, DW_OP_deref] $rsp
	#DEBUG_VALUE: main:line <- [DW_OP_plus_uconst 48, DW_OP_deref] $rsp
	#DEBUG_VALUE: main:slice <- [DW_OP_plus_uconst 56, DW_OP_deref] $rsp
	#DEBUG_VALUE: main:offset <- [DW_OP_plus_uconst 216, DW_OP_deref] $rsp
	#DEBUG_VALUE: main:a <- [DW_OP_LLVM_fragment 64 32] 1.000000e+00
	#DEBUG_VALUE: main:s <- [DW_OP_LLVM_fragment 64 32] 1.000000e+00
	.loc	5 0 10                          # stencils.cpp:0:10
	leaq	16(%rsp), %rdi
.Ltmp235:
	.loc	5 140 10 is_stmt 1              # stencils.cpp:140:10
	callq	hipEventCreate
.Ltmp236:
	.loc	5 140 32 is_stmt 0              # stencils.cpp:140:32
	testl	%eax, %eax
.Ltmp237:
	.loc	5 140 10                        # stencils.cpp:140:10
	jne	.LBB9_186
.Ltmp238:
# %bb.17:
	#DEBUG_VALUE: main:argc <- [DW_OP_LLVM_entry_value 1] $edi
	#DEBUG_VALUE: main:argv <- [DW_OP_LLVM_entry_value 1] $rsi
	#DEBUG_VALUE: main:use_offset <- $r13d
	#DEBUG_VALUE: main:R <- 4
	#DEBUG_VALUE: main:h <- 1.000000e+00
	#DEBUG_VALUE: main:mx <- [DW_OP_plus_uconst 48, DW_OP_deref] $rsp
	#DEBUG_VALUE: main:line <- [DW_OP_plus_uconst 48, DW_OP_deref] $rsp
	#DEBUG_VALUE: main:slice <- [DW_OP_plus_uconst 56, DW_OP_deref] $rsp
	#DEBUG_VALUE: main:offset <- [DW_OP_plus_uconst 216, DW_OP_deref] $rsp
	#DEBUG_VALUE: main:a <- [DW_OP_LLVM_fragment 64 32] 1.000000e+00
	#DEBUG_VALUE: main:s <- [DW_OP_LLVM_fragment 64 32] 1.000000e+00
	.loc	5 142 5 is_stmt 1               # stencils.cpp:142:5
	movl	$.Lstr, %edi
	callq	puts@PLT
.Ltmp239:
	.loc	5 143 20                        # stencils.cpp:143:20
	movq	32(%rsp), %rdi
	.loc	5 143 10 is_stmt 0              # stencils.cpp:143:10
	xorl	%esi, %esi
	movq	%r14, %rdx
	callq	hipMemset
.Ltmp240:
	.loc	5 143 51                        # stencils.cpp:143:51
	testl	%eax, %eax
.Ltmp241:
	.loc	5 143 10                        # stencils.cpp:143:10
	jne	.LBB9_187
.Ltmp242:
# %bb.18:                               # %.preheader503
	#DEBUG_VALUE: main:argc <- [DW_OP_LLVM_entry_value 1] $edi
	#DEBUG_VALUE: main:argv <- [DW_OP_LLVM_entry_value 1] $rsi
	#DEBUG_VALUE: main:use_offset <- $r13d
	#DEBUG_VALUE: main:R <- 4
	#DEBUG_VALUE: main:h <- 1.000000e+00
	#DEBUG_VALUE: main:mx <- [DW_OP_plus_uconst 48, DW_OP_deref] $rsp
	#DEBUG_VALUE: main:line <- [DW_OP_plus_uconst 48, DW_OP_deref] $rsp
	#DEBUG_VALUE: main:slice <- [DW_OP_plus_uconst 56, DW_OP_deref] $rsp
	#DEBUG_VALUE: main:offset <- [DW_OP_plus_uconst 216, DW_OP_deref] $rsp
	#DEBUG_VALUE: main:a <- [DW_OP_LLVM_fragment 64 32] 1.000000e+00
	#DEBUG_VALUE: main:s <- [DW_OP_LLVM_fragment 64 32] 1.000000e+00
	#DEBUG_VALUE: i <- 0
	#DEBUG_VALUE: main:total_elapsed <- 0.000000e+00
	.loc	5 0 10                          # stencils.cpp:0:10
	movq	%r14, 96(%rsp)                  # 8-byte Spill
	leal	4(%r12), %ebx
	leal	4(%r15), %ebp
	movq	152(%rsp), %rax                 # 8-byte Reload
	leal	4(%rax), %r15d
	movl	52(%rsp), %r13d                 # 4-byte Reload
.Ltmp243:
	xorps	%xmm0, %xmm0
.Ltmp244:
	.loc	5 145 23 is_stmt 1              # stencils.cpp:145:23
	testl	%r13d, %r13d
.Ltmp245:
	.loc	5 145 5 is_stmt 0               # stencils.cpp:145:5
	jle	.LBB9_26
.Ltmp246:
# %bb.19:                               # %.lr.ph.preheader
	#DEBUG_VALUE: main:argc <- [DW_OP_LLVM_entry_value 1] $edi
	#DEBUG_VALUE: main:argv <- [DW_OP_LLVM_entry_value 1] $rsi
	#DEBUG_VALUE: main:R <- 4
	#DEBUG_VALUE: main:h <- 1.000000e+00
	#DEBUG_VALUE: main:mx <- [DW_OP_plus_uconst 48, DW_OP_deref] $rsp
	#DEBUG_VALUE: main:line <- [DW_OP_plus_uconst 48, DW_OP_deref] $rsp
	#DEBUG_VALUE: main:slice <- [DW_OP_plus_uconst 56, DW_OP_deref] $rsp
	#DEBUG_VALUE: main:offset <- [DW_OP_plus_uconst 216, DW_OP_deref] $rsp
	#DEBUG_VALUE: main:a <- [DW_OP_LLVM_fragment 64 32] 1.000000e+00
	#DEBUG_VALUE: main:s <- [DW_OP_LLVM_fragment 64 32] 1.000000e+00
	#DEBUG_VALUE: i <- 0
	#DEBUG_VALUE: main:total_elapsed <- 0.000000e+00
	.loc	5 0 5                           # stencils.cpp:0:5
	movss	%xmm0, 8(%rsp)                  # 4-byte Spill
	leaq	160(%rsp), %r14
	leaq	28(%rsp), %r12
.Ltmp247:
	.p2align	4, 0x90
.LBB9_20:                               # %.lr.ph
                                        # =>This Inner Loop Header: Depth=1
	#DEBUG_VALUE: main:argc <- [DW_OP_LLVM_entry_value 1] $edi
	#DEBUG_VALUE: main:argv <- [DW_OP_LLVM_entry_value 1] $rsi
	#DEBUG_VALUE: main:R <- 4
	#DEBUG_VALUE: main:h <- 1.000000e+00
	#DEBUG_VALUE: main:mx <- [DW_OP_plus_uconst 48, DW_OP_deref] $rsp
	#DEBUG_VALUE: main:line <- [DW_OP_plus_uconst 48, DW_OP_deref] $rsp
	#DEBUG_VALUE: main:slice <- [DW_OP_plus_uconst 56, DW_OP_deref] $rsp
	#DEBUG_VALUE: main:offset <- [DW_OP_plus_uconst 216, DW_OP_deref] $rsp
	#DEBUG_VALUE: main:a <- [DW_OP_LLVM_fragment 64 32] 1.000000e+00
	#DEBUG_VALUE: main:s <- [DW_OP_LLVM_fragment 64 32] 1.000000e+00
	#DEBUG_VALUE: i <- [DW_OP_LLVM_arg 0, DW_OP_LLVM_arg 1, DW_OP_plus_uconst 52, DW_OP_deref, DW_OP_minus, DW_OP_consts 18446744073709551615, DW_OP_div, DW_OP_stack_value] $r13d, $rsp
	#DEBUG_VALUE: main:total_elapsed <- [DW_OP_plus_uconst 8, DW_OP_deref] $rsp
	.loc	5 146 14 is_stmt 1              # stencils.cpp:146:14
	callq	hipDeviceSynchronize
.Ltmp248:
	.loc	5 146 37 is_stmt 0              # stencils.cpp:146:37
	testl	%eax, %eax
.Ltmp249:
	.loc	5 146 14                        # stencils.cpp:146:14
	jne	.LBB9_130
.Ltmp250:
# %bb.21:                               #   in Loop: Header=BB9_20 Depth=1
	#DEBUG_VALUE: main:argc <- [DW_OP_LLVM_entry_value 1] $edi
	#DEBUG_VALUE: main:argv <- [DW_OP_LLVM_entry_value 1] $rsi
	#DEBUG_VALUE: main:R <- 4
	#DEBUG_VALUE: main:h <- 1.000000e+00
	#DEBUG_VALUE: main:mx <- [DW_OP_plus_uconst 48, DW_OP_deref] $rsp
	#DEBUG_VALUE: main:line <- [DW_OP_plus_uconst 48, DW_OP_deref] $rsp
	#DEBUG_VALUE: main:slice <- [DW_OP_plus_uconst 56, DW_OP_deref] $rsp
	#DEBUG_VALUE: main:offset <- [DW_OP_plus_uconst 216, DW_OP_deref] $rsp
	#DEBUG_VALUE: main:a <- [DW_OP_LLVM_fragment 64 32] 1.000000e+00
	#DEBUG_VALUE: main:s <- [DW_OP_LLVM_fragment 64 32] 1.000000e+00
	#DEBUG_VALUE: i <- [DW_OP_LLVM_arg 0, DW_OP_LLVM_arg 1, DW_OP_plus_uconst 52, DW_OP_deref, DW_OP_minus, DW_OP_consts 18446744073709551615, DW_OP_div, DW_OP_stack_value] $r13d, $rsp
	#DEBUG_VALUE: main:total_elapsed <- [DW_OP_plus_uconst 8, DW_OP_deref] $rsp
	.loc	5 147 29 is_stmt 1              # stencils.cpp:147:29
	movq	40(%rsp), %rdi
	.loc	5 147 14 is_stmt 0              # stencils.cpp:147:14
	xorl	%esi, %esi
	callq	hipEventRecord
.Ltmp251:
	.loc	5 147 36                        # stencils.cpp:147:36
	testl	%eax, %eax
.Ltmp252:
	.loc	5 147 14                        # stencils.cpp:147:14
	jne	.LBB9_131
.Ltmp253:
# %bb.22:                               #   in Loop: Header=BB9_20 Depth=1
	#DEBUG_VALUE: main:argc <- [DW_OP_LLVM_entry_value 1] $edi
	#DEBUG_VALUE: main:argv <- [DW_OP_LLVM_entry_value 1] $rsi
	#DEBUG_VALUE: main:R <- 4
	#DEBUG_VALUE: main:h <- 1.000000e+00
	#DEBUG_VALUE: main:mx <- [DW_OP_plus_uconst 48, DW_OP_deref] $rsp
	#DEBUG_VALUE: main:line <- [DW_OP_plus_uconst 48, DW_OP_deref] $rsp
	#DEBUG_VALUE: main:slice <- [DW_OP_plus_uconst 56, DW_OP_deref] $rsp
	#DEBUG_VALUE: main:offset <- [DW_OP_plus_uconst 216, DW_OP_deref] $rsp
	#DEBUG_VALUE: main:a <- [DW_OP_LLVM_fragment 64 32] 1.000000e+00
	#DEBUG_VALUE: main:s <- [DW_OP_LLVM_fragment 64 32] 1.000000e+00
	#DEBUG_VALUE: i <- [DW_OP_LLVM_arg 0, DW_OP_LLVM_arg 1, DW_OP_plus_uconst 52, DW_OP_deref, DW_OP_minus, DW_OP_consts 18446744073709551615, DW_OP_div, DW_OP_stack_value] $r13d, $rsp
	#DEBUG_VALUE: main:total_elapsed <- [DW_OP_plus_uconst 8, DW_OP_deref] $rsp
	.loc	5 148 25 is_stmt 1              # stencils.cpp:148:25
	movq	32(%rsp), %rdi
	.loc	5 148 34 is_stmt 0              # stencils.cpp:148:34
	movq	80(%rsp), %rsi
	.loc	5 148 9                         # stencils.cpp:148:9
	subq	$8, %rsp
.Ltmp254:
	.cfi_adjust_cfa_offset 8
	movq	%r14, %rdx
	movl	56(%rsp), %ecx                  # 4-byte Reload
	movq	64(%rsp), %r8                   # 8-byte Reload
                                        # kill: def $r8d killed $r8d killed $r8
	movl	$4, %r9d
	pushq	%r15
	.cfi_adjust_cfa_offset 8
	pushq	$4
	.cfi_adjust_cfa_offset 8
	pushq	%rbp
	.cfi_adjust_cfa_offset 8
	pushq	$4
	.cfi_adjust_cfa_offset 8
	pushq	%rbx
	.cfi_adjust_cfa_offset 8
	callq	_Z12compute_fd_xILi4EEvPfPKfS2_iiiiiiii
.Ltmp255:
	addq	$48, %rsp
	.cfi_adjust_cfa_offset -48
.Ltmp256:
	.loc	5 149 29 is_stmt 1              # stencils.cpp:149:29
	movq	16(%rsp), %rdi
	.loc	5 149 14 is_stmt 0              # stencils.cpp:149:14
	xorl	%esi, %esi
	callq	hipEventRecord
.Ltmp257:
	.loc	5 149 35                        # stencils.cpp:149:35
	testl	%eax, %eax
.Ltmp258:
	.loc	5 149 14                        # stencils.cpp:149:14
	jne	.LBB9_132
.Ltmp259:
# %bb.23:                               #   in Loop: Header=BB9_20 Depth=1
	#DEBUG_VALUE: main:argc <- [DW_OP_LLVM_entry_value 1] $edi
	#DEBUG_VALUE: main:argv <- [DW_OP_LLVM_entry_value 1] $rsi
	#DEBUG_VALUE: main:R <- 4
	#DEBUG_VALUE: main:h <- 1.000000e+00
	#DEBUG_VALUE: main:mx <- [DW_OP_plus_uconst 48, DW_OP_deref] $rsp
	#DEBUG_VALUE: main:line <- [DW_OP_plus_uconst 48, DW_OP_deref] $rsp
	#DEBUG_VALUE: main:slice <- [DW_OP_plus_uconst 56, DW_OP_deref] $rsp
	#DEBUG_VALUE: main:offset <- [DW_OP_plus_uconst 216, DW_OP_deref] $rsp
	#DEBUG_VALUE: main:a <- [DW_OP_LLVM_fragment 64 32] 1.000000e+00
	#DEBUG_VALUE: main:s <- [DW_OP_LLVM_fragment 64 32] 1.000000e+00
	#DEBUG_VALUE: i <- [DW_OP_LLVM_arg 0, DW_OP_LLVM_arg 1, DW_OP_plus_uconst 52, DW_OP_deref, DW_OP_minus, DW_OP_consts 18446744073709551615, DW_OP_div, DW_OP_stack_value] $r13d, $rsp
	#DEBUG_VALUE: main:total_elapsed <- [DW_OP_plus_uconst 8, DW_OP_deref] $rsp
	.loc	5 150 34 is_stmt 1              # stencils.cpp:150:34
	movq	16(%rsp), %rdi
	.loc	5 150 14 is_stmt 0              # stencils.cpp:150:14
	callq	hipEventSynchronize
.Ltmp260:
	.loc	5 150 40                        # stencils.cpp:150:40
	testl	%eax, %eax
.Ltmp261:
	.loc	5 150 14                        # stencils.cpp:150:14
	jne	.LBB9_133
.Ltmp262:
# %bb.24:                               #   in Loop: Header=BB9_20 Depth=1
	#DEBUG_VALUE: main:argc <- [DW_OP_LLVM_entry_value 1] $edi
	#DEBUG_VALUE: main:argv <- [DW_OP_LLVM_entry_value 1] $rsi
	#DEBUG_VALUE: main:R <- 4
	#DEBUG_VALUE: main:h <- 1.000000e+00
	#DEBUG_VALUE: main:mx <- [DW_OP_plus_uconst 48, DW_OP_deref] $rsp
	#DEBUG_VALUE: main:line <- [DW_OP_plus_uconst 48, DW_OP_deref] $rsp
	#DEBUG_VALUE: main:slice <- [DW_OP_plus_uconst 56, DW_OP_deref] $rsp
	#DEBUG_VALUE: main:offset <- [DW_OP_plus_uconst 216, DW_OP_deref] $rsp
	#DEBUG_VALUE: main:a <- [DW_OP_LLVM_fragment 64 32] 1.000000e+00
	#DEBUG_VALUE: main:s <- [DW_OP_LLVM_fragment 64 32] 1.000000e+00
	#DEBUG_VALUE: i <- [DW_OP_LLVM_arg 0, DW_OP_LLVM_arg 1, DW_OP_plus_uconst 52, DW_OP_deref, DW_OP_minus, DW_OP_consts 18446744073709551615, DW_OP_div, DW_OP_stack_value] $r13d, $rsp
	#DEBUG_VALUE: main:total_elapsed <- [DW_OP_plus_uconst 8, DW_OP_deref] $rsp
	.loc	5 151 44 is_stmt 1              # stencils.cpp:151:44
	movq	40(%rsp), %rsi
	.loc	5 151 51 is_stmt 0              # stencils.cpp:151:51
	movq	16(%rsp), %rdx
	.loc	5 151 14                        # stencils.cpp:151:14
	movq	%r12, %rdi
	callq	hipEventElapsedTime
.Ltmp263:
	.loc	5 151 57                        # stencils.cpp:151:57
	testl	%eax, %eax
.Ltmp264:
	.loc	5 151 14                        # stencils.cpp:151:14
	jne	.LBB9_134
.Ltmp265:
# %bb.25:                               #   in Loop: Header=BB9_20 Depth=1
	#DEBUG_VALUE: main:argc <- [DW_OP_LLVM_entry_value 1] $edi
	#DEBUG_VALUE: main:argv <- [DW_OP_LLVM_entry_value 1] $rsi
	#DEBUG_VALUE: main:R <- 4
	#DEBUG_VALUE: main:h <- 1.000000e+00
	#DEBUG_VALUE: main:mx <- [DW_OP_plus_uconst 48, DW_OP_deref] $rsp
	#DEBUG_VALUE: main:line <- [DW_OP_plus_uconst 48, DW_OP_deref] $rsp
	#DEBUG_VALUE: main:slice <- [DW_OP_plus_uconst 56, DW_OP_deref] $rsp
	#DEBUG_VALUE: main:offset <- [DW_OP_plus_uconst 216, DW_OP_deref] $rsp
	#DEBUG_VALUE: main:a <- [DW_OP_LLVM_fragment 64 32] 1.000000e+00
	#DEBUG_VALUE: main:s <- [DW_OP_LLVM_fragment 64 32] 1.000000e+00
	#DEBUG_VALUE: i <- [DW_OP_LLVM_arg 0, DW_OP_LLVM_arg 1, DW_OP_plus_uconst 52, DW_OP_deref, DW_OP_minus, DW_OP_consts 18446744073709551615, DW_OP_div, DW_OP_stack_value] $r13d, $rsp
	#DEBUG_VALUE: main:total_elapsed <- [DW_OP_plus_uconst 8, DW_OP_deref] $rsp
	.loc	5 0 14                          # stencils.cpp:0:14
	movss	8(%rsp), %xmm0                  # 4-byte Reload
                                        # xmm0 = mem[0],zero,zero,zero
	.loc	5 152 23 is_stmt 1              # stencils.cpp:152:23
	addss	28(%rsp), %xmm0
.Ltmp266:
	#DEBUG_VALUE: main:total_elapsed <- $xmm0
	#DEBUG_VALUE: i <- [DW_OP_LLVM_arg 0, DW_OP_LLVM_arg 1, DW_OP_plus_uconst 52, DW_OP_deref, DW_OP_minus, DW_OP_consts 18446744073709551615, DW_OP_div, DW_OP_consts 1, DW_OP_plus, DW_OP_stack_value] $r13d, $rsp
	.loc	5 0 23 is_stmt 0                # stencils.cpp:0:23
	movss	%xmm0, 8(%rsp)                  # 4-byte Spill
.Ltmp267:
	#DEBUG_VALUE: main:total_elapsed <- [DW_OP_plus_uconst 8, DW_OP_deref_size 16, DW_OP_stack_value] $rsp
	.loc	5 145 23 is_stmt 1              # stencils.cpp:145:23
	decl	%r13d
.Ltmp268:
	.loc	5 0 23 is_stmt 0                # stencils.cpp:0:23
	jne	.LBB9_20
	jmp	.LBB9_27
.Ltmp269:
.LBB9_26:
	#DEBUG_VALUE: main:argc <- [DW_OP_LLVM_entry_value 1] $edi
	#DEBUG_VALUE: main:argv <- [DW_OP_LLVM_entry_value 1] $rsi
	#DEBUG_VALUE: main:R <- 4
	#DEBUG_VALUE: main:h <- 1.000000e+00
	#DEBUG_VALUE: main:mx <- [DW_OP_plus_uconst 48, DW_OP_deref] $rsp
	#DEBUG_VALUE: main:line <- [DW_OP_plus_uconst 48, DW_OP_deref] $rsp
	#DEBUG_VALUE: main:slice <- [DW_OP_plus_uconst 56, DW_OP_deref] $rsp
	#DEBUG_VALUE: main:offset <- [DW_OP_plus_uconst 216, DW_OP_deref] $rsp
	#DEBUG_VALUE: main:a <- [DW_OP_LLVM_fragment 64 32] 1.000000e+00
	#DEBUG_VALUE: main:s <- [DW_OP_LLVM_fragment 64 32] 1.000000e+00
	#DEBUG_VALUE: i <- 0
	#DEBUG_VALUE: main:total_elapsed <- 0.000000e+00
	movss	%xmm0, 8(%rsp)                  # 4-byte Spill
.Ltmp270:
.LBB9_27:                               # %._crit_edge
	#DEBUG_VALUE: main:argc <- [DW_OP_LLVM_entry_value 1] $edi
	#DEBUG_VALUE: main:argv <- [DW_OP_LLVM_entry_value 1] $rsi
	#DEBUG_VALUE: main:R <- 4
	#DEBUG_VALUE: main:h <- 1.000000e+00
	#DEBUG_VALUE: main:mx <- [DW_OP_plus_uconst 48, DW_OP_deref] $rsp
	#DEBUG_VALUE: main:line <- [DW_OP_plus_uconst 48, DW_OP_deref] $rsp
	#DEBUG_VALUE: main:slice <- [DW_OP_plus_uconst 56, DW_OP_deref] $rsp
	#DEBUG_VALUE: main:offset <- [DW_OP_plus_uconst 216, DW_OP_deref] $rsp
	#DEBUG_VALUE: main:a <- [DW_OP_LLVM_fragment 64 32] 1.000000e+00
	#DEBUG_VALUE: main:s <- [DW_OP_LLVM_fragment 64 32] 1.000000e+00
	movq	104(%rsp), %r14                 # 8-byte Reload
	leal	8(%r14), %eax
	movl	%r14d, %esi
	movq	136(%rsp), %rdx                 # 8-byte Reload
	imull	%edx, %esi
	movl	%esi, %edi
	movq	152(%rsp), %rcx                 # 8-byte Reload
	imull	%ecx, %edi
	imull	%edx, %eax
	imull	%ecx, %eax
	cvtsi2sd	%eax, %xmm3
.Ltmp271:
	#DEBUG_VALUE: main:theoretical_fetch_x <- $xmm3
	movq	%rsi, 208(%rsp)                 # 8-byte Spill
	leal	(%rsi,%r14,8), %eax
	imull	%ecx, %eax
	cvtsi2sd	%eax, %xmm2
.Ltmp272:
	#DEBUG_VALUE: main:theoretical_fetch_y <- $xmm2
	movq	%rdi, 144(%rsp)                 # 8-byte Spill
	xorps	%xmm0, %xmm0
	cvtsi2sd	%edi, %xmm0
.Ltmp273:
	#DEBUG_VALUE: main:theoretical_write <- $xmm0
	addsd	%xmm0, %xmm3
.Ltmp274:
	movsd	.LCPI9_4(%rip), %xmm1           # xmm1 = mem[0],zero
	mulsd	%xmm1, %xmm3
.Ltmp275:
	#DEBUG_VALUE: main:total_bytes_x <- $xmm3
	movsd	%xmm3, 224(%rsp)                # 8-byte Spill
	movsd	%xmm0, 120(%rsp)                # 8-byte Spill
	addsd	%xmm0, %xmm2
.Ltmp276:
	mulsd	%xmm1, %xmm2
.Ltmp277:
	#DEBUG_VALUE: main:total_bytes_y <- $xmm2
	movsd	%xmm2, 88(%rsp)                 # 8-byte Spill
	.loc	5 154 29 is_stmt 1              # stencils.cpp:154:29
	movq	32(%rsp), %rdi
	.loc	5 154 38 is_stmt 0              # stencils.cpp:154:38
	movq	72(%rsp), %rsi
	.loc	5 154 14                        # stencils.cpp:154:14
	subq	$8, %rsp
.Ltmp278:
	.cfi_adjust_cfa_offset 8
	.loc	5 0 14                          # stencils.cpp:0:14
	movl	56(%rsp), %edx                  # 4-byte Reload
	movq	64(%rsp), %rcx                  # 8-byte Reload
                                        # kill: def $ecx killed $ecx killed $rcx
	.loc	5 154 14                        # stencils.cpp:154:14
	movl	$4, %r8d
	movl	%ebx, %r9d
	pushq	$-1
	.cfi_adjust_cfa_offset 8
	pushq	%r15
	.cfi_adjust_cfa_offset 8
	pushq	$4
	.cfi_adjust_cfa_offset 8
	pushq	%rbp
	.cfi_adjust_cfa_offset 8
	pushq	$4
	.cfi_adjust_cfa_offset 8
	callq	_Z14max_absval_gpuPfPKfiiiiiiiii
.Ltmp279:
	#DEBUG_VALUE: main:maxval <- $xmm0
	addq	$48, %rsp
	.cfi_adjust_cfa_offset -48
	.loc	5 155 62 is_stmt 1              # stencils.cpp:155:62
	cvtss2sd	%xmm0, %xmm0
.Ltmp280:
	.loc	5 155 5 is_stmt 0               # stencils.cpp:155:5
	movl	$.L.str.13, %edi
	movb	$1, %al
	callq	printf
.Ltmp281:
	.loc	5 0 5                           # stencils.cpp:0:5
	movl	52(%rsp), %r13d                 # 4-byte Reload
	.loc	5 156 62 is_stmt 1              # stencils.cpp:156:62
	xorps	%xmm1, %xmm1
	cvtsi2ss	%r13d, %xmm1
	movss	8(%rsp), %xmm0                  # 4-byte Reload
                                        # xmm0 = mem[0],zero,zero,zero
	movss	%xmm1, 68(%rsp)                 # 4-byte Spill
	.loc	5 156 60 is_stmt 0              # stencils.cpp:156:60
	divss	%xmm1, %xmm0
	.loc	5 156 46                        # stencils.cpp:156:46
	cvtss2sd	%xmm0, %xmm0
	.loc	5 156 5                         # stencils.cpp:156:5
	movl	$.L.str.14, %edi
	movb	$1, %al
	callq	printf
.Ltmp282:
	.loc	5 157 70 is_stmt 1              # stencils.cpp:157:70
	xorps	%xmm0, %xmm0
	cvtsi2sd	%r13d, %xmm0
	movsd	%xmm0, 128(%rsp)                # 8-byte Spill
	movsd	224(%rsp), %xmm1                # 8-byte Reload
                                        # xmm1 = mem[0],zero
	.loc	5 157 68 is_stmt 0              # stencils.cpp:157:68
	mulsd	%xmm0, %xmm1
	movss	8(%rsp), %xmm0                  # 4-byte Reload
                                        # xmm0 = mem[0],zero,zero,zero
	.loc	5 157 75                        # stencils.cpp:157:75
	cvtss2sd	%xmm0, %xmm0
	.loc	5 157 73                        # stencils.cpp:157:73
	divsd	%xmm0, %xmm1
	.loc	5 157 89                        # stencils.cpp:157:89
	divsd	.LCPI9_5(%rip), %xmm1
	movapd	%xmm1, %xmm0
	.loc	5 157 5                         # stencils.cpp:157:5
	movl	$.L.str.15, %edi
	movb	$1, %al
	callq	printf
.Ltmp283:
	.loc	5 160 5 is_stmt 1               # stencils.cpp:160:5
	movl	$.Lstr.1, %edi
	callq	puts@PLT
.Ltmp284:
	.loc	5 161 9                         # stencils.cpp:161:9
	testb	$3, %r14b
.Ltmp285:
	.loc	5 161 9 is_stmt 0               # stencils.cpp:161:9
	je	.LBB9_29
.Ltmp286:
# %bb.28:
	#DEBUG_VALUE: main:argc <- [DW_OP_LLVM_entry_value 1] $edi
	#DEBUG_VALUE: main:argv <- [DW_OP_LLVM_entry_value 1] $rsi
	#DEBUG_VALUE: main:R <- 4
	#DEBUG_VALUE: main:h <- 1.000000e+00
	#DEBUG_VALUE: main:mx <- [DW_OP_plus_uconst 48, DW_OP_deref] $rsp
	#DEBUG_VALUE: main:line <- [DW_OP_plus_uconst 48, DW_OP_deref] $rsp
	#DEBUG_VALUE: main:slice <- [DW_OP_plus_uconst 56, DW_OP_deref] $rsp
	#DEBUG_VALUE: main:offset <- [DW_OP_plus_uconst 216, DW_OP_deref] $rsp
	#DEBUG_VALUE: main:a <- [DW_OP_LLVM_fragment 64 32] 1.000000e+00
	#DEBUG_VALUE: main:s <- [DW_OP_LLVM_fragment 64 32] 1.000000e+00
	#DEBUG_VALUE: main:theoretical_write <- [DW_OP_plus_uconst 120, DW_OP_deref_size 16, DW_OP_stack_value] $rsp
	#DEBUG_VALUE: main:total_bytes_x <- [DW_OP_plus_uconst 224, DW_OP_deref_size 16, DW_OP_stack_value] $rsp
	#DEBUG_VALUE: main:total_bytes_y <- [DW_OP_plus_uconst 88, DW_OP_deref_size 16, DW_OP_stack_value] $rsp
	.loc	5 161 26                        # stencils.cpp:161:26
	movl	$.L.str.17, %edi
	movl	%r14d, %esi
	movl	$4, %edx
	xorl	%eax, %eax
	callq	printf
.Ltmp287:
	.loc	5 0 26                          # stencils.cpp:0:26
	jmp	.LBB9_40
.Ltmp288:
.LBB9_29:
	#DEBUG_VALUE: main:argc <- [DW_OP_LLVM_entry_value 1] $edi
	#DEBUG_VALUE: main:argv <- [DW_OP_LLVM_entry_value 1] $rsi
	#DEBUG_VALUE: main:R <- 4
	#DEBUG_VALUE: main:h <- 1.000000e+00
	#DEBUG_VALUE: main:mx <- [DW_OP_plus_uconst 48, DW_OP_deref] $rsp
	#DEBUG_VALUE: main:line <- [DW_OP_plus_uconst 48, DW_OP_deref] $rsp
	#DEBUG_VALUE: main:slice <- [DW_OP_plus_uconst 56, DW_OP_deref] $rsp
	#DEBUG_VALUE: main:offset <- [DW_OP_plus_uconst 216, DW_OP_deref] $rsp
	#DEBUG_VALUE: main:a <- [DW_OP_LLVM_fragment 64 32] 1.000000e+00
	#DEBUG_VALUE: main:s <- [DW_OP_LLVM_fragment 64 32] 1.000000e+00
	#DEBUG_VALUE: main:theoretical_write <- [DW_OP_plus_uconst 120, DW_OP_deref_size 16, DW_OP_stack_value] $rsp
	#DEBUG_VALUE: main:total_bytes_x <- [DW_OP_plus_uconst 224, DW_OP_deref_size 16, DW_OP_stack_value] $rsp
	#DEBUG_VALUE: main:total_bytes_y <- [DW_OP_plus_uconst 88, DW_OP_deref_size 16, DW_OP_stack_value] $rsp
	.loc	5 163 20 is_stmt 1              # stencils.cpp:163:20
	movq	32(%rsp), %rdi
	.loc	5 163 10 is_stmt 0              # stencils.cpp:163:10
	xorl	%esi, %esi
	movq	96(%rsp), %r14                  # 8-byte Reload
	movq	%r14, %rdx
	callq	hipMemset
.Ltmp289:
	.loc	5 163 51                        # stencils.cpp:163:51
	testl	%eax, %eax
.Ltmp290:
	.loc	5 163 10                        # stencils.cpp:163:10
	jne	.LBB9_191
.Ltmp291:
# %bb.30:                               # %.preheader502
	#DEBUG_VALUE: main:argc <- [DW_OP_LLVM_entry_value 1] $edi
	#DEBUG_VALUE: main:argv <- [DW_OP_LLVM_entry_value 1] $rsi
	#DEBUG_VALUE: main:R <- 4
	#DEBUG_VALUE: main:h <- 1.000000e+00
	#DEBUG_VALUE: main:mx <- [DW_OP_plus_uconst 48, DW_OP_deref] $rsp
	#DEBUG_VALUE: main:line <- [DW_OP_plus_uconst 48, DW_OP_deref] $rsp
	#DEBUG_VALUE: main:slice <- [DW_OP_plus_uconst 56, DW_OP_deref] $rsp
	#DEBUG_VALUE: main:offset <- [DW_OP_plus_uconst 216, DW_OP_deref] $rsp
	#DEBUG_VALUE: main:a <- [DW_OP_LLVM_fragment 64 32] 1.000000e+00
	#DEBUG_VALUE: main:s <- [DW_OP_LLVM_fragment 64 32] 1.000000e+00
	#DEBUG_VALUE: main:theoretical_write <- [DW_OP_plus_uconst 120, DW_OP_deref_size 16, DW_OP_stack_value] $rsp
	#DEBUG_VALUE: main:total_bytes_x <- [DW_OP_plus_uconst 224, DW_OP_deref_size 16, DW_OP_stack_value] $rsp
	#DEBUG_VALUE: main:total_bytes_y <- [DW_OP_plus_uconst 88, DW_OP_deref_size 16, DW_OP_stack_value] $rsp
	.loc	5 0 10                          # stencils.cpp:0:10
	xorpd	%xmm0, %xmm0
.Ltmp292:
	.loc	5 145 23 is_stmt 1              # stencils.cpp:145:23
	testl	%r13d, %r13d
.Ltmp293:
	#DEBUG_VALUE: i <- 0
	#DEBUG_VALUE: main:total_elapsed <- 0.000000e+00
	.loc	5 165 5                         # stencils.cpp:165:5
	jle	.LBB9_38
.Ltmp294:
# %bb.31:                               # %.lr.ph558.preheader
	#DEBUG_VALUE: main:argc <- [DW_OP_LLVM_entry_value 1] $edi
	#DEBUG_VALUE: main:argv <- [DW_OP_LLVM_entry_value 1] $rsi
	#DEBUG_VALUE: main:R <- 4
	#DEBUG_VALUE: main:h <- 1.000000e+00
	#DEBUG_VALUE: main:mx <- [DW_OP_plus_uconst 48, DW_OP_deref] $rsp
	#DEBUG_VALUE: main:line <- [DW_OP_plus_uconst 48, DW_OP_deref] $rsp
	#DEBUG_VALUE: main:slice <- [DW_OP_plus_uconst 56, DW_OP_deref] $rsp
	#DEBUG_VALUE: main:offset <- [DW_OP_plus_uconst 216, DW_OP_deref] $rsp
	#DEBUG_VALUE: main:a <- [DW_OP_LLVM_fragment 64 32] 1.000000e+00
	#DEBUG_VALUE: main:s <- [DW_OP_LLVM_fragment 64 32] 1.000000e+00
	#DEBUG_VALUE: main:theoretical_write <- [DW_OP_plus_uconst 120, DW_OP_deref_size 16, DW_OP_stack_value] $rsp
	#DEBUG_VALUE: main:total_bytes_x <- [DW_OP_plus_uconst 224, DW_OP_deref_size 16, DW_OP_stack_value] $rsp
	#DEBUG_VALUE: main:total_bytes_y <- [DW_OP_plus_uconst 88, DW_OP_deref_size 16, DW_OP_stack_value] $rsp
	#DEBUG_VALUE: main:total_elapsed <- 0.000000e+00
	#DEBUG_VALUE: i <- 0
	.loc	5 0 5 is_stmt 0                 # stencils.cpp:0:5
	movss	%xmm0, 8(%rsp)                  # 4-byte Spill
	leaq	160(%rsp), %r14
	leaq	28(%rsp), %r12
.Ltmp295:
	.p2align	4, 0x90
.LBB9_32:                               # %.lr.ph558
                                        # =>This Inner Loop Header: Depth=1
	#DEBUG_VALUE: main:argc <- [DW_OP_LLVM_entry_value 1] $edi
	#DEBUG_VALUE: main:argv <- [DW_OP_LLVM_entry_value 1] $rsi
	#DEBUG_VALUE: main:R <- 4
	#DEBUG_VALUE: main:h <- 1.000000e+00
	#DEBUG_VALUE: main:mx <- [DW_OP_plus_uconst 48, DW_OP_deref] $rsp
	#DEBUG_VALUE: main:line <- [DW_OP_plus_uconst 48, DW_OP_deref] $rsp
	#DEBUG_VALUE: main:slice <- [DW_OP_plus_uconst 56, DW_OP_deref] $rsp
	#DEBUG_VALUE: main:offset <- [DW_OP_plus_uconst 216, DW_OP_deref] $rsp
	#DEBUG_VALUE: main:a <- [DW_OP_LLVM_fragment 64 32] 1.000000e+00
	#DEBUG_VALUE: main:s <- [DW_OP_LLVM_fragment 64 32] 1.000000e+00
	#DEBUG_VALUE: main:theoretical_write <- [DW_OP_plus_uconst 120, DW_OP_deref_size 16, DW_OP_stack_value] $rsp
	#DEBUG_VALUE: main:total_bytes_x <- [DW_OP_plus_uconst 224, DW_OP_deref_size 16, DW_OP_stack_value] $rsp
	#DEBUG_VALUE: main:total_bytes_y <- [DW_OP_plus_uconst 88, DW_OP_deref_size 16, DW_OP_stack_value] $rsp
	#DEBUG_VALUE: i <- [DW_OP_LLVM_arg 0, DW_OP_LLVM_arg 1, DW_OP_plus_uconst 52, DW_OP_deref, DW_OP_minus, DW_OP_consts 18446744073709551615, DW_OP_div, DW_OP_stack_value] $r13d, $rsp
	#DEBUG_VALUE: main:total_elapsed <- [DW_OP_plus_uconst 8, DW_OP_deref] $rsp
	.loc	5 166 14 is_stmt 1              # stencils.cpp:166:14
	callq	hipDeviceSynchronize
.Ltmp296:
	.loc	5 166 37 is_stmt 0              # stencils.cpp:166:37
	testl	%eax, %eax
.Ltmp297:
	.loc	5 166 14                        # stencils.cpp:166:14
	jne	.LBB9_150
.Ltmp298:
# %bb.33:                               #   in Loop: Header=BB9_32 Depth=1
	#DEBUG_VALUE: main:argc <- [DW_OP_LLVM_entry_value 1] $edi
	#DEBUG_VALUE: main:argv <- [DW_OP_LLVM_entry_value 1] $rsi
	#DEBUG_VALUE: main:R <- 4
	#DEBUG_VALUE: main:h <- 1.000000e+00
	#DEBUG_VALUE: main:mx <- [DW_OP_plus_uconst 48, DW_OP_deref] $rsp
	#DEBUG_VALUE: main:line <- [DW_OP_plus_uconst 48, DW_OP_deref] $rsp
	#DEBUG_VALUE: main:slice <- [DW_OP_plus_uconst 56, DW_OP_deref] $rsp
	#DEBUG_VALUE: main:offset <- [DW_OP_plus_uconst 216, DW_OP_deref] $rsp
	#DEBUG_VALUE: main:a <- [DW_OP_LLVM_fragment 64 32] 1.000000e+00
	#DEBUG_VALUE: main:s <- [DW_OP_LLVM_fragment 64 32] 1.000000e+00
	#DEBUG_VALUE: main:theoretical_write <- [DW_OP_plus_uconst 120, DW_OP_deref_size 16, DW_OP_stack_value] $rsp
	#DEBUG_VALUE: main:total_bytes_x <- [DW_OP_plus_uconst 224, DW_OP_deref_size 16, DW_OP_stack_value] $rsp
	#DEBUG_VALUE: main:total_bytes_y <- [DW_OP_plus_uconst 88, DW_OP_deref_size 16, DW_OP_stack_value] $rsp
	#DEBUG_VALUE: main:total_elapsed <- [DW_OP_plus_uconst 8, DW_OP_deref] $rsp
	#DEBUG_VALUE: i <- [DW_OP_LLVM_arg 0, DW_OP_LLVM_arg 1, DW_OP_plus_uconst 52, DW_OP_deref, DW_OP_minus, DW_OP_consts 18446744073709551615, DW_OP_div, DW_OP_stack_value] $r13d, $rsp
	.loc	5 167 29 is_stmt 1              # stencils.cpp:167:29
	movq	40(%rsp), %rdi
	.loc	5 167 14 is_stmt 0              # stencils.cpp:167:14
	xorl	%esi, %esi
	callq	hipEventRecord
.Ltmp299:
	.loc	5 167 36                        # stencils.cpp:167:36
	testl	%eax, %eax
.Ltmp300:
	.loc	5 167 14                        # stencils.cpp:167:14
	jne	.LBB9_151
.Ltmp301:
# %bb.34:                               #   in Loop: Header=BB9_32 Depth=1
	#DEBUG_VALUE: main:argc <- [DW_OP_LLVM_entry_value 1] $edi
	#DEBUG_VALUE: main:argv <- [DW_OP_LLVM_entry_value 1] $rsi
	#DEBUG_VALUE: main:R <- 4
	#DEBUG_VALUE: main:h <- 1.000000e+00
	#DEBUG_VALUE: main:mx <- [DW_OP_plus_uconst 48, DW_OP_deref] $rsp
	#DEBUG_VALUE: main:line <- [DW_OP_plus_uconst 48, DW_OP_deref] $rsp
	#DEBUG_VALUE: main:slice <- [DW_OP_plus_uconst 56, DW_OP_deref] $rsp
	#DEBUG_VALUE: main:offset <- [DW_OP_plus_uconst 216, DW_OP_deref] $rsp
	#DEBUG_VALUE: main:a <- [DW_OP_LLVM_fragment 64 32] 1.000000e+00
	#DEBUG_VALUE: main:s <- [DW_OP_LLVM_fragment 64 32] 1.000000e+00
	#DEBUG_VALUE: main:theoretical_write <- [DW_OP_plus_uconst 120, DW_OP_deref_size 16, DW_OP_stack_value] $rsp
	#DEBUG_VALUE: main:total_bytes_x <- [DW_OP_plus_uconst 224, DW_OP_deref_size 16, DW_OP_stack_value] $rsp
	#DEBUG_VALUE: main:total_bytes_y <- [DW_OP_plus_uconst 88, DW_OP_deref_size 16, DW_OP_stack_value] $rsp
	#DEBUG_VALUE: main:total_elapsed <- [DW_OP_plus_uconst 8, DW_OP_deref] $rsp
	#DEBUG_VALUE: i <- [DW_OP_LLVM_arg 0, DW_OP_LLVM_arg 1, DW_OP_plus_uconst 52, DW_OP_deref, DW_OP_minus, DW_OP_consts 18446744073709551615, DW_OP_div, DW_OP_stack_value] $r13d, $rsp
	.loc	5 168 29 is_stmt 1              # stencils.cpp:168:29
	movq	32(%rsp), %rdi
	.loc	5 168 38 is_stmt 0              # stencils.cpp:168:38
	movq	80(%rsp), %rsi
	.loc	5 168 9                         # stencils.cpp:168:9
	subq	$8, %rsp
.Ltmp302:
	.cfi_adjust_cfa_offset 8
	movq	%r14, %rdx
	movl	56(%rsp), %ecx                  # 4-byte Reload
	movq	64(%rsp), %r8                   # 8-byte Reload
                                        # kill: def $r8d killed $r8d killed $r8
	movl	$4, %r9d
	pushq	%r15
	.cfi_adjust_cfa_offset 8
	pushq	$4
	.cfi_adjust_cfa_offset 8
	pushq	%rbp
	.cfi_adjust_cfa_offset 8
	pushq	$4
	.cfi_adjust_cfa_offset 8
	pushq	%rbx
	.cfi_adjust_cfa_offset 8
	callq	_Z16compute_fd_x_vecILi4EEvPfPKfS2_iiiiiiii
.Ltmp303:
	addq	$48, %rsp
	.cfi_adjust_cfa_offset -48
.Ltmp304:
	.loc	5 169 29 is_stmt 1              # stencils.cpp:169:29
	movq	16(%rsp), %rdi
	.loc	5 169 14 is_stmt 0              # stencils.cpp:169:14
	xorl	%esi, %esi
	callq	hipEventRecord
.Ltmp305:
	.loc	5 169 35                        # stencils.cpp:169:35
	testl	%eax, %eax
.Ltmp306:
	.loc	5 169 14                        # stencils.cpp:169:14
	jne	.LBB9_152
.Ltmp307:
# %bb.35:                               #   in Loop: Header=BB9_32 Depth=1
	#DEBUG_VALUE: main:argc <- [DW_OP_LLVM_entry_value 1] $edi
	#DEBUG_VALUE: main:argv <- [DW_OP_LLVM_entry_value 1] $rsi
	#DEBUG_VALUE: main:R <- 4
	#DEBUG_VALUE: main:h <- 1.000000e+00
	#DEBUG_VALUE: main:mx <- [DW_OP_plus_uconst 48, DW_OP_deref] $rsp
	#DEBUG_VALUE: main:line <- [DW_OP_plus_uconst 48, DW_OP_deref] $rsp
	#DEBUG_VALUE: main:slice <- [DW_OP_plus_uconst 56, DW_OP_deref] $rsp
	#DEBUG_VALUE: main:offset <- [DW_OP_plus_uconst 216, DW_OP_deref] $rsp
	#DEBUG_VALUE: main:a <- [DW_OP_LLVM_fragment 64 32] 1.000000e+00
	#DEBUG_VALUE: main:s <- [DW_OP_LLVM_fragment 64 32] 1.000000e+00
	#DEBUG_VALUE: main:theoretical_write <- [DW_OP_plus_uconst 120, DW_OP_deref_size 16, DW_OP_stack_value] $rsp
	#DEBUG_VALUE: main:total_bytes_x <- [DW_OP_plus_uconst 224, DW_OP_deref_size 16, DW_OP_stack_value] $rsp
	#DEBUG_VALUE: main:total_bytes_y <- [DW_OP_plus_uconst 88, DW_OP_deref_size 16, DW_OP_stack_value] $rsp
	#DEBUG_VALUE: main:total_elapsed <- [DW_OP_plus_uconst 8, DW_OP_deref] $rsp
	#DEBUG_VALUE: i <- [DW_OP_LLVM_arg 0, DW_OP_LLVM_arg 1, DW_OP_plus_uconst 52, DW_OP_deref, DW_OP_minus, DW_OP_consts 18446744073709551615, DW_OP_div, DW_OP_stack_value] $r13d, $rsp
	.loc	5 170 34 is_stmt 1              # stencils.cpp:170:34
	movq	16(%rsp), %rdi
	.loc	5 170 14 is_stmt 0              # stencils.cpp:170:14
	callq	hipEventSynchronize
.Ltmp308:
	.loc	5 170 40                        # stencils.cpp:170:40
	testl	%eax, %eax
.Ltmp309:
	.loc	5 170 14                        # stencils.cpp:170:14
	jne	.LBB9_153
.Ltmp310:
# %bb.36:                               #   in Loop: Header=BB9_32 Depth=1
	#DEBUG_VALUE: main:argc <- [DW_OP_LLVM_entry_value 1] $edi
	#DEBUG_VALUE: main:argv <- [DW_OP_LLVM_entry_value 1] $rsi
	#DEBUG_VALUE: main:R <- 4
	#DEBUG_VALUE: main:h <- 1.000000e+00
	#DEBUG_VALUE: main:mx <- [DW_OP_plus_uconst 48, DW_OP_deref] $rsp
	#DEBUG_VALUE: main:line <- [DW_OP_plus_uconst 48, DW_OP_deref] $rsp
	#DEBUG_VALUE: main:slice <- [DW_OP_plus_uconst 56, DW_OP_deref] $rsp
	#DEBUG_VALUE: main:offset <- [DW_OP_plus_uconst 216, DW_OP_deref] $rsp
	#DEBUG_VALUE: main:a <- [DW_OP_LLVM_fragment 64 32] 1.000000e+00
	#DEBUG_VALUE: main:s <- [DW_OP_LLVM_fragment 64 32] 1.000000e+00
	#DEBUG_VALUE: main:theoretical_write <- [DW_OP_plus_uconst 120, DW_OP_deref_size 16, DW_OP_stack_value] $rsp
	#DEBUG_VALUE: main:total_bytes_x <- [DW_OP_plus_uconst 224, DW_OP_deref_size 16, DW_OP_stack_value] $rsp
	#DEBUG_VALUE: main:total_bytes_y <- [DW_OP_plus_uconst 88, DW_OP_deref_size 16, DW_OP_stack_value] $rsp
	#DEBUG_VALUE: main:total_elapsed <- [DW_OP_plus_uconst 8, DW_OP_deref] $rsp
	#DEBUG_VALUE: i <- [DW_OP_LLVM_arg 0, DW_OP_LLVM_arg 1, DW_OP_plus_uconst 52, DW_OP_deref, DW_OP_minus, DW_OP_consts 18446744073709551615, DW_OP_div, DW_OP_stack_value] $r13d, $rsp
	.loc	5 171 44 is_stmt 1              # stencils.cpp:171:44
	movq	40(%rsp), %rsi
	.loc	5 171 51 is_stmt 0              # stencils.cpp:171:51
	movq	16(%rsp), %rdx
	.loc	5 171 14                        # stencils.cpp:171:14
	movq	%r12, %rdi
	callq	hipEventElapsedTime
.Ltmp311:
	.loc	5 171 57                        # stencils.cpp:171:57
	testl	%eax, %eax
.Ltmp312:
	.loc	5 171 14                        # stencils.cpp:171:14
	jne	.LBB9_154
.Ltmp313:
# %bb.37:                               #   in Loop: Header=BB9_32 Depth=1
	#DEBUG_VALUE: main:argc <- [DW_OP_LLVM_entry_value 1] $edi
	#DEBUG_VALUE: main:argv <- [DW_OP_LLVM_entry_value 1] $rsi
	#DEBUG_VALUE: main:R <- 4
	#DEBUG_VALUE: main:h <- 1.000000e+00
	#DEBUG_VALUE: main:mx <- [DW_OP_plus_uconst 48, DW_OP_deref] $rsp
	#DEBUG_VALUE: main:line <- [DW_OP_plus_uconst 48, DW_OP_deref] $rsp
	#DEBUG_VALUE: main:slice <- [DW_OP_plus_uconst 56, DW_OP_deref] $rsp
	#DEBUG_VALUE: main:offset <- [DW_OP_plus_uconst 216, DW_OP_deref] $rsp
	#DEBUG_VALUE: main:a <- [DW_OP_LLVM_fragment 64 32] 1.000000e+00
	#DEBUG_VALUE: main:s <- [DW_OP_LLVM_fragment 64 32] 1.000000e+00
	#DEBUG_VALUE: main:theoretical_write <- [DW_OP_plus_uconst 120, DW_OP_deref_size 16, DW_OP_stack_value] $rsp
	#DEBUG_VALUE: main:total_bytes_x <- [DW_OP_plus_uconst 224, DW_OP_deref_size 16, DW_OP_stack_value] $rsp
	#DEBUG_VALUE: main:total_bytes_y <- [DW_OP_plus_uconst 88, DW_OP_deref_size 16, DW_OP_stack_value] $rsp
	#DEBUG_VALUE: main:total_elapsed <- [DW_OP_plus_uconst 8, DW_OP_deref] $rsp
	#DEBUG_VALUE: i <- [DW_OP_LLVM_arg 0, DW_OP_LLVM_arg 1, DW_OP_plus_uconst 52, DW_OP_deref, DW_OP_minus, DW_OP_consts 18446744073709551615, DW_OP_div, DW_OP_stack_value] $r13d, $rsp
	.loc	5 0 14                          # stencils.cpp:0:14
	movss	8(%rsp), %xmm0                  # 4-byte Reload
                                        # xmm0 = mem[0],zero,zero,zero
	.loc	5 172 23 is_stmt 1              # stencils.cpp:172:23
	addss	28(%rsp), %xmm0
.Ltmp314:
	#DEBUG_VALUE: main:total_elapsed <- $xmm0
	#DEBUG_VALUE: i <- [DW_OP_LLVM_arg 0, DW_OP_LLVM_arg 1, DW_OP_plus_uconst 52, DW_OP_deref, DW_OP_minus, DW_OP_consts 18446744073709551615, DW_OP_div, DW_OP_consts 1, DW_OP_plus, DW_OP_stack_value] $r13d, $rsp
	.loc	5 0 23 is_stmt 0                # stencils.cpp:0:23
	movss	%xmm0, 8(%rsp)                  # 4-byte Spill
.Ltmp315:
	#DEBUG_VALUE: main:total_elapsed <- [DW_OP_plus_uconst 8, DW_OP_deref_size 16, DW_OP_stack_value] $rsp
	.loc	5 165 23 is_stmt 1              # stencils.cpp:165:23
	decl	%r13d
.Ltmp316:
	.loc	5 0 23 is_stmt 0                # stencils.cpp:0:23
	jne	.LBB9_32
	jmp	.LBB9_39
.Ltmp317:
.LBB9_38:
	#DEBUG_VALUE: main:argc <- [DW_OP_LLVM_entry_value 1] $edi
	#DEBUG_VALUE: main:argv <- [DW_OP_LLVM_entry_value 1] $rsi
	#DEBUG_VALUE: main:R <- 4
	#DEBUG_VALUE: main:h <- 1.000000e+00
	#DEBUG_VALUE: main:mx <- [DW_OP_plus_uconst 48, DW_OP_deref] $rsp
	#DEBUG_VALUE: main:line <- [DW_OP_plus_uconst 48, DW_OP_deref] $rsp
	#DEBUG_VALUE: main:slice <- [DW_OP_plus_uconst 56, DW_OP_deref] $rsp
	#DEBUG_VALUE: main:offset <- [DW_OP_plus_uconst 216, DW_OP_deref] $rsp
	#DEBUG_VALUE: main:a <- [DW_OP_LLVM_fragment 64 32] 1.000000e+00
	#DEBUG_VALUE: main:s <- [DW_OP_LLVM_fragment 64 32] 1.000000e+00
	#DEBUG_VALUE: main:theoretical_write <- [DW_OP_plus_uconst 120, DW_OP_deref_size 16, DW_OP_stack_value] $rsp
	#DEBUG_VALUE: main:total_bytes_x <- [DW_OP_plus_uconst 224, DW_OP_deref_size 16, DW_OP_stack_value] $rsp
	#DEBUG_VALUE: main:total_bytes_y <- [DW_OP_plus_uconst 88, DW_OP_deref_size 16, DW_OP_stack_value] $rsp
	#DEBUG_VALUE: main:total_elapsed <- 0.000000e+00
	#DEBUG_VALUE: i <- 0
	movss	%xmm0, 8(%rsp)                  # 4-byte Spill
.Ltmp318:
.LBB9_39:                               # %._crit_edge559
	#DEBUG_VALUE: main:argc <- [DW_OP_LLVM_entry_value 1] $edi
	#DEBUG_VALUE: main:argv <- [DW_OP_LLVM_entry_value 1] $rsi
	#DEBUG_VALUE: main:R <- 4
	#DEBUG_VALUE: main:h <- 1.000000e+00
	#DEBUG_VALUE: main:mx <- [DW_OP_plus_uconst 48, DW_OP_deref] $rsp
	#DEBUG_VALUE: main:line <- [DW_OP_plus_uconst 48, DW_OP_deref] $rsp
	#DEBUG_VALUE: main:slice <- [DW_OP_plus_uconst 56, DW_OP_deref] $rsp
	#DEBUG_VALUE: main:offset <- [DW_OP_plus_uconst 216, DW_OP_deref] $rsp
	#DEBUG_VALUE: main:a <- [DW_OP_LLVM_fragment 64 32] 1.000000e+00
	#DEBUG_VALUE: main:s <- [DW_OP_LLVM_fragment 64 32] 1.000000e+00
	#DEBUG_VALUE: main:theoretical_write <- [DW_OP_plus_uconst 120, DW_OP_deref_size 16, DW_OP_stack_value] $rsp
	#DEBUG_VALUE: main:total_bytes_x <- [DW_OP_plus_uconst 224, DW_OP_deref_size 16, DW_OP_stack_value] $rsp
	#DEBUG_VALUE: main:total_bytes_y <- [DW_OP_plus_uconst 88, DW_OP_deref_size 16, DW_OP_stack_value] $rsp
	.loc	5 174 29 is_stmt 1              # stencils.cpp:174:29
	movq	32(%rsp), %rdi
	.loc	5 174 38 is_stmt 0              # stencils.cpp:174:38
	movq	72(%rsp), %rsi
	.loc	5 174 14                        # stencils.cpp:174:14
	subq	$8, %rsp
.Ltmp319:
	.cfi_adjust_cfa_offset 8
	.loc	5 0 14                          # stencils.cpp:0:14
	movl	56(%rsp), %edx                  # 4-byte Reload
	movq	64(%rsp), %rcx                  # 8-byte Reload
                                        # kill: def $ecx killed $ecx killed $rcx
	.loc	5 174 14                        # stencils.cpp:174:14
	movl	$4, %r8d
	movl	%ebx, %r9d
	pushq	$-1
	.cfi_adjust_cfa_offset 8
	pushq	%r15
	.cfi_adjust_cfa_offset 8
	pushq	$4
	.cfi_adjust_cfa_offset 8
	pushq	%rbp
	.cfi_adjust_cfa_offset 8
	pushq	$4
	.cfi_adjust_cfa_offset 8
	callq	_Z14max_absval_gpuPfPKfiiiiiiiii
.Ltmp320:
	#DEBUG_VALUE: main:maxval <- $xmm0
	addq	$48, %rsp
	.cfi_adjust_cfa_offset -48
	.loc	5 175 62 is_stmt 1              # stencils.cpp:175:62
	cvtss2sd	%xmm0, %xmm0
.Ltmp321:
	.loc	5 175 5 is_stmt 0               # stencils.cpp:175:5
	movl	$.L.str.13, %edi
	movb	$1, %al
	callq	printf
.Ltmp322:
	.loc	5 0 5                           # stencils.cpp:0:5
	movss	8(%rsp), %xmm0                  # 4-byte Reload
                                        # xmm0 = mem[0],zero,zero,zero
	.loc	5 176 60 is_stmt 1              # stencils.cpp:176:60
	divss	68(%rsp), %xmm0                 # 4-byte Folded Reload
	.loc	5 176 46 is_stmt 0              # stencils.cpp:176:46
	cvtss2sd	%xmm0, %xmm0
	.loc	5 176 5                         # stencils.cpp:176:5
	movl	$.L.str.14, %edi
	movb	$1, %al
	callq	printf
.Ltmp323:
	.loc	5 0 5                           # stencils.cpp:0:5
	movsd	88(%rsp), %xmm0                 # 8-byte Reload
                                        # xmm0 = mem[0],zero
	.loc	5 177 68 is_stmt 1              # stencils.cpp:177:68
	mulsd	128(%rsp), %xmm0                # 8-byte Folded Reload
	movss	8(%rsp), %xmm1                  # 4-byte Reload
                                        # xmm1 = mem[0],zero,zero,zero
	.loc	5 177 75 is_stmt 0              # stencils.cpp:177:75
	cvtss2sd	%xmm1, %xmm1
	.loc	5 177 73                        # stencils.cpp:177:73
	divsd	%xmm1, %xmm0
	.loc	5 177 89                        # stencils.cpp:177:89
	divsd	.LCPI9_5(%rip), %xmm0
	.loc	5 177 5                         # stencils.cpp:177:5
	movl	$.L.str.15, %edi
	movb	$1, %al
	callq	printf
.Ltmp324:
	.loc	5 0 5                           # stencils.cpp:0:5
	movl	52(%rsp), %r13d                 # 4-byte Reload
.Ltmp325:
.LBB9_40:
	#DEBUG_VALUE: main:argc <- [DW_OP_LLVM_entry_value 1] $edi
	#DEBUG_VALUE: main:argv <- [DW_OP_LLVM_entry_value 1] $rsi
	#DEBUG_VALUE: main:R <- 4
	#DEBUG_VALUE: main:h <- 1.000000e+00
	#DEBUG_VALUE: main:mx <- [DW_OP_plus_uconst 48, DW_OP_deref] $rsp
	#DEBUG_VALUE: main:line <- [DW_OP_plus_uconst 48, DW_OP_deref] $rsp
	#DEBUG_VALUE: main:slice <- [DW_OP_plus_uconst 56, DW_OP_deref] $rsp
	#DEBUG_VALUE: main:offset <- [DW_OP_plus_uconst 216, DW_OP_deref] $rsp
	#DEBUG_VALUE: main:a <- [DW_OP_LLVM_fragment 64 32] 1.000000e+00
	#DEBUG_VALUE: main:s <- [DW_OP_LLVM_fragment 64 32] 1.000000e+00
	#DEBUG_VALUE: main:theoretical_write <- [DW_OP_plus_uconst 120, DW_OP_deref_size 16, DW_OP_stack_value] $rsp
	#DEBUG_VALUE: main:total_bytes_x <- [DW_OP_plus_uconst 224, DW_OP_deref_size 16, DW_OP_stack_value] $rsp
	#DEBUG_VALUE: main:total_bytes_y <- [DW_OP_plus_uconst 88, DW_OP_deref_size 16, DW_OP_stack_value] $rsp
	.loc	5 181 5 is_stmt 1               # stencils.cpp:181:5
	movl	$.Lstr.2, %edi
	callq	puts@PLT
.Ltmp326:
	.loc	5 182 20                        # stencils.cpp:182:20
	movq	32(%rsp), %rdi
	.loc	5 182 10 is_stmt 0              # stencils.cpp:182:10
	xorl	%esi, %esi
	movq	96(%rsp), %r14                  # 8-byte Reload
	movq	%r14, %rdx
	callq	hipMemset
.Ltmp327:
	.loc	5 182 51                        # stencils.cpp:182:51
	testl	%eax, %eax
.Ltmp328:
	.loc	5 182 10                        # stencils.cpp:182:10
	jne	.LBB9_188
.Ltmp329:
# %bb.41:                               # %.preheader501
	#DEBUG_VALUE: main:argc <- [DW_OP_LLVM_entry_value 1] $edi
	#DEBUG_VALUE: main:argv <- [DW_OP_LLVM_entry_value 1] $rsi
	#DEBUG_VALUE: main:R <- 4
	#DEBUG_VALUE: main:h <- 1.000000e+00
	#DEBUG_VALUE: main:mx <- [DW_OP_plus_uconst 48, DW_OP_deref] $rsp
	#DEBUG_VALUE: main:line <- [DW_OP_plus_uconst 48, DW_OP_deref] $rsp
	#DEBUG_VALUE: main:slice <- [DW_OP_plus_uconst 56, DW_OP_deref] $rsp
	#DEBUG_VALUE: main:offset <- [DW_OP_plus_uconst 216, DW_OP_deref] $rsp
	#DEBUG_VALUE: main:a <- [DW_OP_LLVM_fragment 64 32] 1.000000e+00
	#DEBUG_VALUE: main:s <- [DW_OP_LLVM_fragment 64 32] 1.000000e+00
	#DEBUG_VALUE: main:theoretical_write <- [DW_OP_plus_uconst 120, DW_OP_deref_size 16, DW_OP_stack_value] $rsp
	#DEBUG_VALUE: main:total_bytes_x <- [DW_OP_plus_uconst 224, DW_OP_deref_size 16, DW_OP_stack_value] $rsp
	#DEBUG_VALUE: main:total_bytes_y <- [DW_OP_plus_uconst 88, DW_OP_deref_size 16, DW_OP_stack_value] $rsp
	.loc	5 0 10                          # stencils.cpp:0:10
	xorpd	%xmm0, %xmm0
.Ltmp330:
	.loc	5 145 23 is_stmt 1              # stencils.cpp:145:23
	testl	%r13d, %r13d
.Ltmp331:
	#DEBUG_VALUE: i <- 0
	#DEBUG_VALUE: main:total_elapsed <- 0.000000e+00
	.loc	5 184 5                         # stencils.cpp:184:5
	jle	.LBB9_49
.Ltmp332:
# %bb.42:                               # %.lr.ph563.preheader
	#DEBUG_VALUE: main:argc <- [DW_OP_LLVM_entry_value 1] $edi
	#DEBUG_VALUE: main:argv <- [DW_OP_LLVM_entry_value 1] $rsi
	#DEBUG_VALUE: main:R <- 4
	#DEBUG_VALUE: main:h <- 1.000000e+00
	#DEBUG_VALUE: main:mx <- [DW_OP_plus_uconst 48, DW_OP_deref] $rsp
	#DEBUG_VALUE: main:line <- [DW_OP_plus_uconst 48, DW_OP_deref] $rsp
	#DEBUG_VALUE: main:slice <- [DW_OP_plus_uconst 56, DW_OP_deref] $rsp
	#DEBUG_VALUE: main:offset <- [DW_OP_plus_uconst 216, DW_OP_deref] $rsp
	#DEBUG_VALUE: main:a <- [DW_OP_LLVM_fragment 64 32] 1.000000e+00
	#DEBUG_VALUE: main:s <- [DW_OP_LLVM_fragment 64 32] 1.000000e+00
	#DEBUG_VALUE: main:theoretical_write <- [DW_OP_plus_uconst 120, DW_OP_deref_size 16, DW_OP_stack_value] $rsp
	#DEBUG_VALUE: main:total_bytes_x <- [DW_OP_plus_uconst 224, DW_OP_deref_size 16, DW_OP_stack_value] $rsp
	#DEBUG_VALUE: main:total_bytes_y <- [DW_OP_plus_uconst 88, DW_OP_deref_size 16, DW_OP_stack_value] $rsp
	#DEBUG_VALUE: main:total_elapsed <- 0.000000e+00
	#DEBUG_VALUE: i <- 0
	.loc	5 0 5 is_stmt 0                 # stencils.cpp:0:5
	movss	%xmm0, 8(%rsp)                  # 4-byte Spill
	leaq	160(%rsp), %r14
	leaq	28(%rsp), %r12
.Ltmp333:
	.p2align	4, 0x90
.LBB9_43:                               # %.lr.ph563
                                        # =>This Inner Loop Header: Depth=1
	#DEBUG_VALUE: main:argc <- [DW_OP_LLVM_entry_value 1] $edi
	#DEBUG_VALUE: main:argv <- [DW_OP_LLVM_entry_value 1] $rsi
	#DEBUG_VALUE: main:R <- 4
	#DEBUG_VALUE: main:h <- 1.000000e+00
	#DEBUG_VALUE: main:mx <- [DW_OP_plus_uconst 48, DW_OP_deref] $rsp
	#DEBUG_VALUE: main:line <- [DW_OP_plus_uconst 48, DW_OP_deref] $rsp
	#DEBUG_VALUE: main:slice <- [DW_OP_plus_uconst 56, DW_OP_deref] $rsp
	#DEBUG_VALUE: main:offset <- [DW_OP_plus_uconst 216, DW_OP_deref] $rsp
	#DEBUG_VALUE: main:a <- [DW_OP_LLVM_fragment 64 32] 1.000000e+00
	#DEBUG_VALUE: main:s <- [DW_OP_LLVM_fragment 64 32] 1.000000e+00
	#DEBUG_VALUE: main:theoretical_write <- [DW_OP_plus_uconst 120, DW_OP_deref_size 16, DW_OP_stack_value] $rsp
	#DEBUG_VALUE: main:total_bytes_x <- [DW_OP_plus_uconst 224, DW_OP_deref_size 16, DW_OP_stack_value] $rsp
	#DEBUG_VALUE: main:total_bytes_y <- [DW_OP_plus_uconst 88, DW_OP_deref_size 16, DW_OP_stack_value] $rsp
	#DEBUG_VALUE: i <- [DW_OP_LLVM_arg 0, DW_OP_LLVM_arg 1, DW_OP_plus_uconst 52, DW_OP_deref, DW_OP_minus, DW_OP_consts 18446744073709551615, DW_OP_div, DW_OP_stack_value] $r13d, $rsp
	#DEBUG_VALUE: main:total_elapsed <- [DW_OP_plus_uconst 8, DW_OP_deref] $rsp
	.loc	5 185 14 is_stmt 1              # stencils.cpp:185:14
	callq	hipDeviceSynchronize
.Ltmp334:
	.loc	5 185 37 is_stmt 0              # stencils.cpp:185:37
	testl	%eax, %eax
.Ltmp335:
	.loc	5 185 14                        # stencils.cpp:185:14
	jne	.LBB9_135
.Ltmp336:
# %bb.44:                               #   in Loop: Header=BB9_43 Depth=1
	#DEBUG_VALUE: main:argc <- [DW_OP_LLVM_entry_value 1] $edi
	#DEBUG_VALUE: main:argv <- [DW_OP_LLVM_entry_value 1] $rsi
	#DEBUG_VALUE: main:R <- 4
	#DEBUG_VALUE: main:h <- 1.000000e+00
	#DEBUG_VALUE: main:mx <- [DW_OP_plus_uconst 48, DW_OP_deref] $rsp
	#DEBUG_VALUE: main:line <- [DW_OP_plus_uconst 48, DW_OP_deref] $rsp
	#DEBUG_VALUE: main:slice <- [DW_OP_plus_uconst 56, DW_OP_deref] $rsp
	#DEBUG_VALUE: main:offset <- [DW_OP_plus_uconst 216, DW_OP_deref] $rsp
	#DEBUG_VALUE: main:a <- [DW_OP_LLVM_fragment 64 32] 1.000000e+00
	#DEBUG_VALUE: main:s <- [DW_OP_LLVM_fragment 64 32] 1.000000e+00
	#DEBUG_VALUE: main:theoretical_write <- [DW_OP_plus_uconst 120, DW_OP_deref_size 16, DW_OP_stack_value] $rsp
	#DEBUG_VALUE: main:total_bytes_x <- [DW_OP_plus_uconst 224, DW_OP_deref_size 16, DW_OP_stack_value] $rsp
	#DEBUG_VALUE: main:total_bytes_y <- [DW_OP_plus_uconst 88, DW_OP_deref_size 16, DW_OP_stack_value] $rsp
	#DEBUG_VALUE: main:total_elapsed <- [DW_OP_plus_uconst 8, DW_OP_deref] $rsp
	#DEBUG_VALUE: i <- [DW_OP_LLVM_arg 0, DW_OP_LLVM_arg 1, DW_OP_plus_uconst 52, DW_OP_deref, DW_OP_minus, DW_OP_consts 18446744073709551615, DW_OP_div, DW_OP_stack_value] $r13d, $rsp
	.loc	5 186 29 is_stmt 1              # stencils.cpp:186:29
	movq	40(%rsp), %rdi
	.loc	5 186 14 is_stmt 0              # stencils.cpp:186:14
	xorl	%esi, %esi
	callq	hipEventRecord
.Ltmp337:
	.loc	5 186 36                        # stencils.cpp:186:36
	testl	%eax, %eax
.Ltmp338:
	.loc	5 186 14                        # stencils.cpp:186:14
	jne	.LBB9_136
.Ltmp339:
# %bb.45:                               #   in Loop: Header=BB9_43 Depth=1
	#DEBUG_VALUE: main:argc <- [DW_OP_LLVM_entry_value 1] $edi
	#DEBUG_VALUE: main:argv <- [DW_OP_LLVM_entry_value 1] $rsi
	#DEBUG_VALUE: main:R <- 4
	#DEBUG_VALUE: main:h <- 1.000000e+00
	#DEBUG_VALUE: main:mx <- [DW_OP_plus_uconst 48, DW_OP_deref] $rsp
	#DEBUG_VALUE: main:line <- [DW_OP_plus_uconst 48, DW_OP_deref] $rsp
	#DEBUG_VALUE: main:slice <- [DW_OP_plus_uconst 56, DW_OP_deref] $rsp
	#DEBUG_VALUE: main:offset <- [DW_OP_plus_uconst 216, DW_OP_deref] $rsp
	#DEBUG_VALUE: main:a <- [DW_OP_LLVM_fragment 64 32] 1.000000e+00
	#DEBUG_VALUE: main:s <- [DW_OP_LLVM_fragment 64 32] 1.000000e+00
	#DEBUG_VALUE: main:theoretical_write <- [DW_OP_plus_uconst 120, DW_OP_deref_size 16, DW_OP_stack_value] $rsp
	#DEBUG_VALUE: main:total_bytes_x <- [DW_OP_plus_uconst 224, DW_OP_deref_size 16, DW_OP_stack_value] $rsp
	#DEBUG_VALUE: main:total_bytes_y <- [DW_OP_plus_uconst 88, DW_OP_deref_size 16, DW_OP_stack_value] $rsp
	#DEBUG_VALUE: main:total_elapsed <- [DW_OP_plus_uconst 8, DW_OP_deref] $rsp
	#DEBUG_VALUE: i <- [DW_OP_LLVM_arg 0, DW_OP_LLVM_arg 1, DW_OP_plus_uconst 52, DW_OP_deref, DW_OP_minus, DW_OP_consts 18446744073709551615, DW_OP_div, DW_OP_stack_value] $r13d, $rsp
	.loc	5 187 25 is_stmt 1              # stencils.cpp:187:25
	movq	32(%rsp), %rdi
	.loc	5 187 34 is_stmt 0              # stencils.cpp:187:34
	movq	80(%rsp), %rsi
	.loc	5 187 9                         # stencils.cpp:187:9
	subq	$8, %rsp
.Ltmp340:
	.cfi_adjust_cfa_offset 8
	movq	%r14, %rdx
	movl	56(%rsp), %ecx                  # 4-byte Reload
	movq	64(%rsp), %r8                   # 8-byte Reload
                                        # kill: def $r8d killed $r8d killed $r8
	movl	$4, %r9d
	pushq	%r15
	.cfi_adjust_cfa_offset 8
	pushq	$4
	.cfi_adjust_cfa_offset 8
	pushq	%rbp
	.cfi_adjust_cfa_offset 8
	pushq	$4
	.cfi_adjust_cfa_offset 8
	pushq	%rbx
	.cfi_adjust_cfa_offset 8
	callq	_Z12compute_fd_yILi4EEvPfPKfS2_iiiiiiii
.Ltmp341:
	addq	$48, %rsp
	.cfi_adjust_cfa_offset -48
.Ltmp342:
	.loc	5 188 29 is_stmt 1              # stencils.cpp:188:29
	movq	16(%rsp), %rdi
	.loc	5 188 14 is_stmt 0              # stencils.cpp:188:14
	xorl	%esi, %esi
	callq	hipEventRecord
.Ltmp343:
	.loc	5 188 35                        # stencils.cpp:188:35
	testl	%eax, %eax
.Ltmp344:
	.loc	5 188 14                        # stencils.cpp:188:14
	jne	.LBB9_137
.Ltmp345:
# %bb.46:                               #   in Loop: Header=BB9_43 Depth=1
	#DEBUG_VALUE: main:argc <- [DW_OP_LLVM_entry_value 1] $edi
	#DEBUG_VALUE: main:argv <- [DW_OP_LLVM_entry_value 1] $rsi
	#DEBUG_VALUE: main:R <- 4
	#DEBUG_VALUE: main:h <- 1.000000e+00
	#DEBUG_VALUE: main:mx <- [DW_OP_plus_uconst 48, DW_OP_deref] $rsp
	#DEBUG_VALUE: main:line <- [DW_OP_plus_uconst 48, DW_OP_deref] $rsp
	#DEBUG_VALUE: main:slice <- [DW_OP_plus_uconst 56, DW_OP_deref] $rsp
	#DEBUG_VALUE: main:offset <- [DW_OP_plus_uconst 216, DW_OP_deref] $rsp
	#DEBUG_VALUE: main:a <- [DW_OP_LLVM_fragment 64 32] 1.000000e+00
	#DEBUG_VALUE: main:s <- [DW_OP_LLVM_fragment 64 32] 1.000000e+00
	#DEBUG_VALUE: main:theoretical_write <- [DW_OP_plus_uconst 120, DW_OP_deref_size 16, DW_OP_stack_value] $rsp
	#DEBUG_VALUE: main:total_bytes_x <- [DW_OP_plus_uconst 224, DW_OP_deref_size 16, DW_OP_stack_value] $rsp
	#DEBUG_VALUE: main:total_bytes_y <- [DW_OP_plus_uconst 88, DW_OP_deref_size 16, DW_OP_stack_value] $rsp
	#DEBUG_VALUE: main:total_elapsed <- [DW_OP_plus_uconst 8, DW_OP_deref] $rsp
	#DEBUG_VALUE: i <- [DW_OP_LLVM_arg 0, DW_OP_LLVM_arg 1, DW_OP_plus_uconst 52, DW_OP_deref, DW_OP_minus, DW_OP_consts 18446744073709551615, DW_OP_div, DW_OP_stack_value] $r13d, $rsp
	.loc	5 189 34 is_stmt 1              # stencils.cpp:189:34
	movq	16(%rsp), %rdi
	.loc	5 189 14 is_stmt 0              # stencils.cpp:189:14
	callq	hipEventSynchronize
.Ltmp346:
	.loc	5 189 40                        # stencils.cpp:189:40
	testl	%eax, %eax
.Ltmp347:
	.loc	5 189 14                        # stencils.cpp:189:14
	jne	.LBB9_138
.Ltmp348:
# %bb.47:                               #   in Loop: Header=BB9_43 Depth=1
	#DEBUG_VALUE: main:argc <- [DW_OP_LLVM_entry_value 1] $edi
	#DEBUG_VALUE: main:argv <- [DW_OP_LLVM_entry_value 1] $rsi
	#DEBUG_VALUE: main:R <- 4
	#DEBUG_VALUE: main:h <- 1.000000e+00
	#DEBUG_VALUE: main:mx <- [DW_OP_plus_uconst 48, DW_OP_deref] $rsp
	#DEBUG_VALUE: main:line <- [DW_OP_plus_uconst 48, DW_OP_deref] $rsp
	#DEBUG_VALUE: main:slice <- [DW_OP_plus_uconst 56, DW_OP_deref] $rsp
	#DEBUG_VALUE: main:offset <- [DW_OP_plus_uconst 216, DW_OP_deref] $rsp
	#DEBUG_VALUE: main:a <- [DW_OP_LLVM_fragment 64 32] 1.000000e+00
	#DEBUG_VALUE: main:s <- [DW_OP_LLVM_fragment 64 32] 1.000000e+00
	#DEBUG_VALUE: main:theoretical_write <- [DW_OP_plus_uconst 120, DW_OP_deref_size 16, DW_OP_stack_value] $rsp
	#DEBUG_VALUE: main:total_bytes_x <- [DW_OP_plus_uconst 224, DW_OP_deref_size 16, DW_OP_stack_value] $rsp
	#DEBUG_VALUE: main:total_bytes_y <- [DW_OP_plus_uconst 88, DW_OP_deref_size 16, DW_OP_stack_value] $rsp
	#DEBUG_VALUE: main:total_elapsed <- [DW_OP_plus_uconst 8, DW_OP_deref] $rsp
	#DEBUG_VALUE: i <- [DW_OP_LLVM_arg 0, DW_OP_LLVM_arg 1, DW_OP_plus_uconst 52, DW_OP_deref, DW_OP_minus, DW_OP_consts 18446744073709551615, DW_OP_div, DW_OP_stack_value] $r13d, $rsp
	.loc	5 190 44 is_stmt 1              # stencils.cpp:190:44
	movq	40(%rsp), %rsi
	.loc	5 190 51 is_stmt 0              # stencils.cpp:190:51
	movq	16(%rsp), %rdx
	.loc	5 190 14                        # stencils.cpp:190:14
	movq	%r12, %rdi
	callq	hipEventElapsedTime
.Ltmp349:
	.loc	5 190 57                        # stencils.cpp:190:57
	testl	%eax, %eax
.Ltmp350:
	.loc	5 190 14                        # stencils.cpp:190:14
	jne	.LBB9_139
.Ltmp351:
# %bb.48:                               #   in Loop: Header=BB9_43 Depth=1
	#DEBUG_VALUE: main:argc <- [DW_OP_LLVM_entry_value 1] $edi
	#DEBUG_VALUE: main:argv <- [DW_OP_LLVM_entry_value 1] $rsi
	#DEBUG_VALUE: main:R <- 4
	#DEBUG_VALUE: main:h <- 1.000000e+00
	#DEBUG_VALUE: main:mx <- [DW_OP_plus_uconst 48, DW_OP_deref] $rsp
	#DEBUG_VALUE: main:line <- [DW_OP_plus_uconst 48, DW_OP_deref] $rsp
	#DEBUG_VALUE: main:slice <- [DW_OP_plus_uconst 56, DW_OP_deref] $rsp
	#DEBUG_VALUE: main:offset <- [DW_OP_plus_uconst 216, DW_OP_deref] $rsp
	#DEBUG_VALUE: main:a <- [DW_OP_LLVM_fragment 64 32] 1.000000e+00
	#DEBUG_VALUE: main:s <- [DW_OP_LLVM_fragment 64 32] 1.000000e+00
	#DEBUG_VALUE: main:theoretical_write <- [DW_OP_plus_uconst 120, DW_OP_deref_size 16, DW_OP_stack_value] $rsp
	#DEBUG_VALUE: main:total_bytes_x <- [DW_OP_plus_uconst 224, DW_OP_deref_size 16, DW_OP_stack_value] $rsp
	#DEBUG_VALUE: main:total_bytes_y <- [DW_OP_plus_uconst 88, DW_OP_deref_size 16, DW_OP_stack_value] $rsp
	#DEBUG_VALUE: main:total_elapsed <- [DW_OP_plus_uconst 8, DW_OP_deref] $rsp
	#DEBUG_VALUE: i <- [DW_OP_LLVM_arg 0, DW_OP_LLVM_arg 1, DW_OP_plus_uconst 52, DW_OP_deref, DW_OP_minus, DW_OP_consts 18446744073709551615, DW_OP_div, DW_OP_stack_value] $r13d, $rsp
	.loc	5 0 14                          # stencils.cpp:0:14
	movss	8(%rsp), %xmm0                  # 4-byte Reload
                                        # xmm0 = mem[0],zero,zero,zero
	.loc	5 191 23 is_stmt 1              # stencils.cpp:191:23
	addss	28(%rsp), %xmm0
.Ltmp352:
	#DEBUG_VALUE: main:total_elapsed <- $xmm0
	#DEBUG_VALUE: i <- [DW_OP_LLVM_arg 0, DW_OP_LLVM_arg 1, DW_OP_plus_uconst 52, DW_OP_deref, DW_OP_minus, DW_OP_consts 18446744073709551615, DW_OP_div, DW_OP_consts 1, DW_OP_plus, DW_OP_stack_value] $r13d, $rsp
	.loc	5 0 23 is_stmt 0                # stencils.cpp:0:23
	movss	%xmm0, 8(%rsp)                  # 4-byte Spill
.Ltmp353:
	#DEBUG_VALUE: main:total_elapsed <- [DW_OP_plus_uconst 8, DW_OP_deref_size 16, DW_OP_stack_value] $rsp
	.loc	5 184 23 is_stmt 1              # stencils.cpp:184:23
	decl	%r13d
.Ltmp354:
	.loc	5 184 5 is_stmt 0               # stencils.cpp:184:5
	jne	.LBB9_43
	jmp	.LBB9_50
.Ltmp355:
.LBB9_49:
	#DEBUG_VALUE: main:argc <- [DW_OP_LLVM_entry_value 1] $edi
	#DEBUG_VALUE: main:argv <- [DW_OP_LLVM_entry_value 1] $rsi
	#DEBUG_VALUE: main:R <- 4
	#DEBUG_VALUE: main:h <- 1.000000e+00
	#DEBUG_VALUE: main:mx <- [DW_OP_plus_uconst 48, DW_OP_deref] $rsp
	#DEBUG_VALUE: main:line <- [DW_OP_plus_uconst 48, DW_OP_deref] $rsp
	#DEBUG_VALUE: main:slice <- [DW_OP_plus_uconst 56, DW_OP_deref] $rsp
	#DEBUG_VALUE: main:offset <- [DW_OP_plus_uconst 216, DW_OP_deref] $rsp
	#DEBUG_VALUE: main:a <- [DW_OP_LLVM_fragment 64 32] 1.000000e+00
	#DEBUG_VALUE: main:s <- [DW_OP_LLVM_fragment 64 32] 1.000000e+00
	#DEBUG_VALUE: main:theoretical_write <- [DW_OP_plus_uconst 120, DW_OP_deref_size 16, DW_OP_stack_value] $rsp
	#DEBUG_VALUE: main:total_bytes_x <- [DW_OP_plus_uconst 224, DW_OP_deref_size 16, DW_OP_stack_value] $rsp
	#DEBUG_VALUE: main:total_bytes_y <- [DW_OP_plus_uconst 88, DW_OP_deref_size 16, DW_OP_stack_value] $rsp
	#DEBUG_VALUE: main:total_elapsed <- 0.000000e+00
	#DEBUG_VALUE: i <- 0
	.loc	5 0 5                           # stencils.cpp:0:5
	movss	%xmm0, 8(%rsp)                  # 4-byte Spill
.Ltmp356:
.LBB9_50:                               # %._crit_edge564
	#DEBUG_VALUE: main:argc <- [DW_OP_LLVM_entry_value 1] $edi
	#DEBUG_VALUE: main:argv <- [DW_OP_LLVM_entry_value 1] $rsi
	#DEBUG_VALUE: main:R <- 4
	#DEBUG_VALUE: main:h <- 1.000000e+00
	#DEBUG_VALUE: main:mx <- [DW_OP_plus_uconst 48, DW_OP_deref] $rsp
	#DEBUG_VALUE: main:line <- [DW_OP_plus_uconst 48, DW_OP_deref] $rsp
	#DEBUG_VALUE: main:slice <- [DW_OP_plus_uconst 56, DW_OP_deref] $rsp
	#DEBUG_VALUE: main:offset <- [DW_OP_plus_uconst 216, DW_OP_deref] $rsp
	#DEBUG_VALUE: main:a <- [DW_OP_LLVM_fragment 64 32] 1.000000e+00
	#DEBUG_VALUE: main:s <- [DW_OP_LLVM_fragment 64 32] 1.000000e+00
	#DEBUG_VALUE: main:theoretical_write <- [DW_OP_plus_uconst 120, DW_OP_deref_size 16, DW_OP_stack_value] $rsp
	#DEBUG_VALUE: main:total_bytes_x <- [DW_OP_plus_uconst 224, DW_OP_deref_size 16, DW_OP_stack_value] $rsp
	#DEBUG_VALUE: main:total_bytes_y <- [DW_OP_plus_uconst 88, DW_OP_deref_size 16, DW_OP_stack_value] $rsp
	.loc	5 193 29 is_stmt 1              # stencils.cpp:193:29
	movq	32(%rsp), %rdi
	.loc	5 193 38 is_stmt 0              # stencils.cpp:193:38
	movq	72(%rsp), %rsi
	.loc	5 193 14                        # stencils.cpp:193:14
	subq	$8, %rsp
.Ltmp357:
	.cfi_adjust_cfa_offset 8
	.loc	5 0 14                          # stencils.cpp:0:14
	movl	56(%rsp), %edx                  # 4-byte Reload
	movq	64(%rsp), %rcx                  # 8-byte Reload
                                        # kill: def $ecx killed $ecx killed $rcx
	.loc	5 193 14                        # stencils.cpp:193:14
	movl	$4, %r8d
	movl	%ebx, %r9d
	pushq	$-1
	.cfi_adjust_cfa_offset 8
	pushq	%r15
	.cfi_adjust_cfa_offset 8
	pushq	$4
	.cfi_adjust_cfa_offset 8
	pushq	%rbp
	.cfi_adjust_cfa_offset 8
	pushq	$4
	.cfi_adjust_cfa_offset 8
	callq	_Z14max_absval_gpuPfPKfiiiiiiiii
.Ltmp358:
	#DEBUG_VALUE: main:maxval <- $xmm0
	addq	$48, %rsp
	.cfi_adjust_cfa_offset -48
	.loc	5 194 62 is_stmt 1              # stencils.cpp:194:62
	cvtss2sd	%xmm0, %xmm0
.Ltmp359:
	.loc	5 194 5 is_stmt 0               # stencils.cpp:194:5
	movl	$.L.str.13, %edi
	movb	$1, %al
	callq	printf
.Ltmp360:
	.loc	5 0 5                           # stencils.cpp:0:5
	movss	8(%rsp), %xmm0                  # 4-byte Reload
                                        # xmm0 = mem[0],zero,zero,zero
	.loc	5 195 60 is_stmt 1              # stencils.cpp:195:60
	divss	68(%rsp), %xmm0                 # 4-byte Folded Reload
	.loc	5 195 46 is_stmt 0              # stencils.cpp:195:46
	cvtss2sd	%xmm0, %xmm0
	.loc	5 195 5                         # stencils.cpp:195:5
	movl	$.L.str.14, %edi
	movb	$1, %al
	callq	printf
.Ltmp361:
	.loc	5 0 5                           # stencils.cpp:0:5
	movsd	88(%rsp), %xmm0                 # 8-byte Reload
                                        # xmm0 = mem[0],zero
	.loc	5 196 68 is_stmt 1              # stencils.cpp:196:68
	mulsd	128(%rsp), %xmm0                # 8-byte Folded Reload
	movss	8(%rsp), %xmm1                  # 4-byte Reload
                                        # xmm1 = mem[0],zero,zero,zero
	.loc	5 196 75 is_stmt 0              # stencils.cpp:196:75
	cvtss2sd	%xmm1, %xmm1
	movsd	%xmm0, 88(%rsp)                 # 8-byte Spill
.Ltmp362:
	#DEBUG_VALUE: main:total_bytes_y <- undef
	.loc	5 196 73                        # stencils.cpp:196:73
	divsd	%xmm1, %xmm0
	.loc	5 196 89                        # stencils.cpp:196:89
	divsd	.LCPI9_5(%rip), %xmm0
	.loc	5 196 5                         # stencils.cpp:196:5
	movl	$.L.str.15, %edi
	movb	$1, %al
	callq	printf
.Ltmp363:
	.loc	5 199 5 is_stmt 1               # stencils.cpp:199:5
	movl	$.Lstr.3, %edi
	callq	puts@PLT
.Ltmp364:
	.loc	5 0 5 is_stmt 0                 # stencils.cpp:0:5
	movq	104(%rsp), %r14                 # 8-byte Reload
.Ltmp365:
	.loc	5 161 9 is_stmt 1               # stencils.cpp:161:9
	testb	$3, %r14b
.Ltmp366:
	.loc	5 200 9                         # stencils.cpp:200:9
	je	.LBB9_52
.Ltmp367:
# %bb.51:                               # %.thread486
	#DEBUG_VALUE: main:argc <- [DW_OP_LLVM_entry_value 1] $edi
	#DEBUG_VALUE: main:argv <- [DW_OP_LLVM_entry_value 1] $rsi
	#DEBUG_VALUE: main:R <- 4
	#DEBUG_VALUE: main:h <- 1.000000e+00
	#DEBUG_VALUE: main:mx <- [DW_OP_plus_uconst 48, DW_OP_deref] $rsp
	#DEBUG_VALUE: main:line <- [DW_OP_plus_uconst 48, DW_OP_deref] $rsp
	#DEBUG_VALUE: main:slice <- [DW_OP_plus_uconst 56, DW_OP_deref] $rsp
	#DEBUG_VALUE: main:offset <- [DW_OP_plus_uconst 216, DW_OP_deref] $rsp
	#DEBUG_VALUE: main:a <- [DW_OP_LLVM_fragment 64 32] 1.000000e+00
	#DEBUG_VALUE: main:s <- [DW_OP_LLVM_fragment 64 32] 1.000000e+00
	#DEBUG_VALUE: main:theoretical_write <- [DW_OP_plus_uconst 120, DW_OP_deref_size 16, DW_OP_stack_value] $rsp
	#DEBUG_VALUE: main:total_bytes_x <- [DW_OP_plus_uconst 224, DW_OP_deref_size 16, DW_OP_stack_value] $rsp
	.loc	5 200 26 is_stmt 0              # stencils.cpp:200:26
	movl	$.L.str.17, %edi
	movl	%r14d, %esi
	movl	$4, %edx
	xorl	%eax, %eax
	callq	printf
.Ltmp368:
	.loc	5 220 5 is_stmt 1               # stencils.cpp:220:5
	movl	$.Lstr.4, %edi
	callq	puts@PLT
.Ltmp369:
	.loc	5 221 26                        # stencils.cpp:221:26
	movl	$.L.str.17, %edi
	movl	%r14d, %esi
	movl	$4, %edx
	xorl	%eax, %eax
	callq	printf
.Ltmp370:
	.loc	5 0 26 is_stmt 0                # stencils.cpp:0:26
	jmp	.LBB9_73
.Ltmp371:
.LBB9_52:
	#DEBUG_VALUE: main:argc <- [DW_OP_LLVM_entry_value 1] $edi
	#DEBUG_VALUE: main:argv <- [DW_OP_LLVM_entry_value 1] $rsi
	#DEBUG_VALUE: main:R <- 4
	#DEBUG_VALUE: main:h <- 1.000000e+00
	#DEBUG_VALUE: main:mx <- [DW_OP_plus_uconst 48, DW_OP_deref] $rsp
	#DEBUG_VALUE: main:line <- [DW_OP_plus_uconst 48, DW_OP_deref] $rsp
	#DEBUG_VALUE: main:slice <- [DW_OP_plus_uconst 56, DW_OP_deref] $rsp
	#DEBUG_VALUE: main:offset <- [DW_OP_plus_uconst 216, DW_OP_deref] $rsp
	#DEBUG_VALUE: main:a <- [DW_OP_LLVM_fragment 64 32] 1.000000e+00
	#DEBUG_VALUE: main:s <- [DW_OP_LLVM_fragment 64 32] 1.000000e+00
	#DEBUG_VALUE: main:theoretical_write <- [DW_OP_plus_uconst 120, DW_OP_deref_size 16, DW_OP_stack_value] $rsp
	#DEBUG_VALUE: main:total_bytes_x <- [DW_OP_plus_uconst 224, DW_OP_deref_size 16, DW_OP_stack_value] $rsp
	.loc	5 202 20 is_stmt 1              # stencils.cpp:202:20
	movq	32(%rsp), %rdi
	.loc	5 202 10 is_stmt 0              # stencils.cpp:202:10
	xorl	%esi, %esi
	movq	96(%rsp), %r14                  # 8-byte Reload
	movq	%r14, %rdx
	callq	hipMemset
.Ltmp372:
	.loc	5 202 51                        # stencils.cpp:202:51
	testl	%eax, %eax
	movl	52(%rsp), %r13d                 # 4-byte Reload
.Ltmp373:
	.loc	5 202 10                        # stencils.cpp:202:10
	jne	.LBB9_192
.Ltmp374:
# %bb.53:                               # %.preheader500
	#DEBUG_VALUE: main:argc <- [DW_OP_LLVM_entry_value 1] $edi
	#DEBUG_VALUE: main:argv <- [DW_OP_LLVM_entry_value 1] $rsi
	#DEBUG_VALUE: main:R <- 4
	#DEBUG_VALUE: main:h <- 1.000000e+00
	#DEBUG_VALUE: main:mx <- [DW_OP_plus_uconst 48, DW_OP_deref] $rsp
	#DEBUG_VALUE: main:line <- [DW_OP_plus_uconst 48, DW_OP_deref] $rsp
	#DEBUG_VALUE: main:slice <- [DW_OP_plus_uconst 56, DW_OP_deref] $rsp
	#DEBUG_VALUE: main:offset <- [DW_OP_plus_uconst 216, DW_OP_deref] $rsp
	#DEBUG_VALUE: main:a <- [DW_OP_LLVM_fragment 64 32] 1.000000e+00
	#DEBUG_VALUE: main:s <- [DW_OP_LLVM_fragment 64 32] 1.000000e+00
	#DEBUG_VALUE: main:theoretical_write <- [DW_OP_plus_uconst 120, DW_OP_deref_size 16, DW_OP_stack_value] $rsp
	#DEBUG_VALUE: main:total_bytes_x <- [DW_OP_plus_uconst 224, DW_OP_deref_size 16, DW_OP_stack_value] $rsp
	.loc	5 0 10                          # stencils.cpp:0:10
	xorpd	%xmm0, %xmm0
.Ltmp375:
	.loc	5 145 23 is_stmt 1              # stencils.cpp:145:23
	testl	%r13d, %r13d
.Ltmp376:
	#DEBUG_VALUE: i <- 0
	#DEBUG_VALUE: main:total_elapsed <- 0.000000e+00
	.loc	5 204 5                         # stencils.cpp:204:5
	jle	.LBB9_61
.Ltmp377:
# %bb.54:                               # %.lr.ph568.preheader
	#DEBUG_VALUE: main:argc <- [DW_OP_LLVM_entry_value 1] $edi
	#DEBUG_VALUE: main:argv <- [DW_OP_LLVM_entry_value 1] $rsi
	#DEBUG_VALUE: main:R <- 4
	#DEBUG_VALUE: main:h <- 1.000000e+00
	#DEBUG_VALUE: main:mx <- [DW_OP_plus_uconst 48, DW_OP_deref] $rsp
	#DEBUG_VALUE: main:line <- [DW_OP_plus_uconst 48, DW_OP_deref] $rsp
	#DEBUG_VALUE: main:slice <- [DW_OP_plus_uconst 56, DW_OP_deref] $rsp
	#DEBUG_VALUE: main:offset <- [DW_OP_plus_uconst 216, DW_OP_deref] $rsp
	#DEBUG_VALUE: main:a <- [DW_OP_LLVM_fragment 64 32] 1.000000e+00
	#DEBUG_VALUE: main:s <- [DW_OP_LLVM_fragment 64 32] 1.000000e+00
	#DEBUG_VALUE: main:theoretical_write <- [DW_OP_plus_uconst 120, DW_OP_deref_size 16, DW_OP_stack_value] $rsp
	#DEBUG_VALUE: main:total_bytes_x <- [DW_OP_plus_uconst 224, DW_OP_deref_size 16, DW_OP_stack_value] $rsp
	#DEBUG_VALUE: main:total_elapsed <- 0.000000e+00
	#DEBUG_VALUE: i <- 0
	.loc	5 0 5 is_stmt 0                 # stencils.cpp:0:5
	movss	%xmm0, 8(%rsp)                  # 4-byte Spill
	leaq	160(%rsp), %r14
	leaq	28(%rsp), %r12
.Ltmp378:
	.p2align	4, 0x90
.LBB9_55:                               # %.lr.ph568
                                        # =>This Inner Loop Header: Depth=1
	#DEBUG_VALUE: main:argc <- [DW_OP_LLVM_entry_value 1] $edi
	#DEBUG_VALUE: main:argv <- [DW_OP_LLVM_entry_value 1] $rsi
	#DEBUG_VALUE: main:R <- 4
	#DEBUG_VALUE: main:h <- 1.000000e+00
	#DEBUG_VALUE: main:mx <- [DW_OP_plus_uconst 48, DW_OP_deref] $rsp
	#DEBUG_VALUE: main:line <- [DW_OP_plus_uconst 48, DW_OP_deref] $rsp
	#DEBUG_VALUE: main:slice <- [DW_OP_plus_uconst 56, DW_OP_deref] $rsp
	#DEBUG_VALUE: main:offset <- [DW_OP_plus_uconst 216, DW_OP_deref] $rsp
	#DEBUG_VALUE: main:a <- [DW_OP_LLVM_fragment 64 32] 1.000000e+00
	#DEBUG_VALUE: main:s <- [DW_OP_LLVM_fragment 64 32] 1.000000e+00
	#DEBUG_VALUE: main:theoretical_write <- [DW_OP_plus_uconst 120, DW_OP_deref_size 16, DW_OP_stack_value] $rsp
	#DEBUG_VALUE: main:total_bytes_x <- [DW_OP_plus_uconst 224, DW_OP_deref_size 16, DW_OP_stack_value] $rsp
	#DEBUG_VALUE: i <- [DW_OP_LLVM_arg 0, DW_OP_LLVM_arg 1, DW_OP_plus_uconst 52, DW_OP_deref, DW_OP_minus, DW_OP_consts 18446744073709551615, DW_OP_div, DW_OP_stack_value] $r13d, $rsp
	#DEBUG_VALUE: main:total_elapsed <- [DW_OP_plus_uconst 8, DW_OP_deref] $rsp
	.loc	5 205 14 is_stmt 1              # stencils.cpp:205:14
	callq	hipDeviceSynchronize
.Ltmp379:
	.loc	5 205 37 is_stmt 0              # stencils.cpp:205:37
	testl	%eax, %eax
.Ltmp380:
	.loc	5 205 14                        # stencils.cpp:205:14
	jne	.LBB9_155
.Ltmp381:
# %bb.56:                               #   in Loop: Header=BB9_55 Depth=1
	#DEBUG_VALUE: main:argc <- [DW_OP_LLVM_entry_value 1] $edi
	#DEBUG_VALUE: main:argv <- [DW_OP_LLVM_entry_value 1] $rsi
	#DEBUG_VALUE: main:R <- 4
	#DEBUG_VALUE: main:h <- 1.000000e+00
	#DEBUG_VALUE: main:mx <- [DW_OP_plus_uconst 48, DW_OP_deref] $rsp
	#DEBUG_VALUE: main:line <- [DW_OP_plus_uconst 48, DW_OP_deref] $rsp
	#DEBUG_VALUE: main:slice <- [DW_OP_plus_uconst 56, DW_OP_deref] $rsp
	#DEBUG_VALUE: main:offset <- [DW_OP_plus_uconst 216, DW_OP_deref] $rsp
	#DEBUG_VALUE: main:a <- [DW_OP_LLVM_fragment 64 32] 1.000000e+00
	#DEBUG_VALUE: main:s <- [DW_OP_LLVM_fragment 64 32] 1.000000e+00
	#DEBUG_VALUE: main:theoretical_write <- [DW_OP_plus_uconst 120, DW_OP_deref_size 16, DW_OP_stack_value] $rsp
	#DEBUG_VALUE: main:total_bytes_x <- [DW_OP_plus_uconst 224, DW_OP_deref_size 16, DW_OP_stack_value] $rsp
	#DEBUG_VALUE: main:total_elapsed <- [DW_OP_plus_uconst 8, DW_OP_deref] $rsp
	#DEBUG_VALUE: i <- [DW_OP_LLVM_arg 0, DW_OP_LLVM_arg 1, DW_OP_plus_uconst 52, DW_OP_deref, DW_OP_minus, DW_OP_consts 18446744073709551615, DW_OP_div, DW_OP_stack_value] $r13d, $rsp
	.loc	5 206 29 is_stmt 1              # stencils.cpp:206:29
	movq	40(%rsp), %rdi
	.loc	5 206 14 is_stmt 0              # stencils.cpp:206:14
	xorl	%esi, %esi
	callq	hipEventRecord
.Ltmp382:
	.loc	5 206 36                        # stencils.cpp:206:36
	testl	%eax, %eax
.Ltmp383:
	.loc	5 206 14                        # stencils.cpp:206:14
	jne	.LBB9_156
.Ltmp384:
# %bb.57:                               #   in Loop: Header=BB9_55 Depth=1
	#DEBUG_VALUE: main:argc <- [DW_OP_LLVM_entry_value 1] $edi
	#DEBUG_VALUE: main:argv <- [DW_OP_LLVM_entry_value 1] $rsi
	#DEBUG_VALUE: main:R <- 4
	#DEBUG_VALUE: main:h <- 1.000000e+00
	#DEBUG_VALUE: main:mx <- [DW_OP_plus_uconst 48, DW_OP_deref] $rsp
	#DEBUG_VALUE: main:line <- [DW_OP_plus_uconst 48, DW_OP_deref] $rsp
	#DEBUG_VALUE: main:slice <- [DW_OP_plus_uconst 56, DW_OP_deref] $rsp
	#DEBUG_VALUE: main:offset <- [DW_OP_plus_uconst 216, DW_OP_deref] $rsp
	#DEBUG_VALUE: main:a <- [DW_OP_LLVM_fragment 64 32] 1.000000e+00
	#DEBUG_VALUE: main:s <- [DW_OP_LLVM_fragment 64 32] 1.000000e+00
	#DEBUG_VALUE: main:theoretical_write <- [DW_OP_plus_uconst 120, DW_OP_deref_size 16, DW_OP_stack_value] $rsp
	#DEBUG_VALUE: main:total_bytes_x <- [DW_OP_plus_uconst 224, DW_OP_deref_size 16, DW_OP_stack_value] $rsp
	#DEBUG_VALUE: main:total_elapsed <- [DW_OP_plus_uconst 8, DW_OP_deref] $rsp
	#DEBUG_VALUE: i <- [DW_OP_LLVM_arg 0, DW_OP_LLVM_arg 1, DW_OP_plus_uconst 52, DW_OP_deref, DW_OP_minus, DW_OP_consts 18446744073709551615, DW_OP_div, DW_OP_stack_value] $r13d, $rsp
	.loc	5 207 29 is_stmt 1              # stencils.cpp:207:29
	movq	32(%rsp), %rdi
	.loc	5 207 38 is_stmt 0              # stencils.cpp:207:38
	movq	80(%rsp), %rsi
	.loc	5 207 9                         # stencils.cpp:207:9
	subq	$8, %rsp
.Ltmp385:
	.cfi_adjust_cfa_offset 8
	movq	%r14, %rdx
	movl	56(%rsp), %ecx                  # 4-byte Reload
	movq	64(%rsp), %r8                   # 8-byte Reload
                                        # kill: def $r8d killed $r8d killed $r8
	movl	$4, %r9d
	pushq	%r15
	.cfi_adjust_cfa_offset 8
	pushq	$4
	.cfi_adjust_cfa_offset 8
	pushq	%rbp
	.cfi_adjust_cfa_offset 8
	pushq	$4
	.cfi_adjust_cfa_offset 8
	pushq	%rbx
	.cfi_adjust_cfa_offset 8
	callq	_Z16compute_fd_y_vecILi4EEvPfPKfS2_iiiiiiii
.Ltmp386:
	addq	$48, %rsp
	.cfi_adjust_cfa_offset -48
.Ltmp387:
	.loc	5 208 29 is_stmt 1              # stencils.cpp:208:29
	movq	16(%rsp), %rdi
	.loc	5 208 14 is_stmt 0              # stencils.cpp:208:14
	xorl	%esi, %esi
	callq	hipEventRecord
.Ltmp388:
	.loc	5 208 35                        # stencils.cpp:208:35
	testl	%eax, %eax
.Ltmp389:
	.loc	5 208 14                        # stencils.cpp:208:14
	jne	.LBB9_157
.Ltmp390:
# %bb.58:                               #   in Loop: Header=BB9_55 Depth=1
	#DEBUG_VALUE: main:argc <- [DW_OP_LLVM_entry_value 1] $edi
	#DEBUG_VALUE: main:argv <- [DW_OP_LLVM_entry_value 1] $rsi
	#DEBUG_VALUE: main:R <- 4
	#DEBUG_VALUE: main:h <- 1.000000e+00
	#DEBUG_VALUE: main:mx <- [DW_OP_plus_uconst 48, DW_OP_deref] $rsp
	#DEBUG_VALUE: main:line <- [DW_OP_plus_uconst 48, DW_OP_deref] $rsp
	#DEBUG_VALUE: main:slice <- [DW_OP_plus_uconst 56, DW_OP_deref] $rsp
	#DEBUG_VALUE: main:offset <- [DW_OP_plus_uconst 216, DW_OP_deref] $rsp
	#DEBUG_VALUE: main:a <- [DW_OP_LLVM_fragment 64 32] 1.000000e+00
	#DEBUG_VALUE: main:s <- [DW_OP_LLVM_fragment 64 32] 1.000000e+00
	#DEBUG_VALUE: main:theoretical_write <- [DW_OP_plus_uconst 120, DW_OP_deref_size 16, DW_OP_stack_value] $rsp
	#DEBUG_VALUE: main:total_bytes_x <- [DW_OP_plus_uconst 224, DW_OP_deref_size 16, DW_OP_stack_value] $rsp
	#DEBUG_VALUE: main:total_elapsed <- [DW_OP_plus_uconst 8, DW_OP_deref] $rsp
	#DEBUG_VALUE: i <- [DW_OP_LLVM_arg 0, DW_OP_LLVM_arg 1, DW_OP_plus_uconst 52, DW_OP_deref, DW_OP_minus, DW_OP_consts 18446744073709551615, DW_OP_div, DW_OP_stack_value] $r13d, $rsp
	.loc	5 209 34 is_stmt 1              # stencils.cpp:209:34
	movq	16(%rsp), %rdi
	.loc	5 209 14 is_stmt 0              # stencils.cpp:209:14
	callq	hipEventSynchronize
.Ltmp391:
	.loc	5 209 40                        # stencils.cpp:209:40
	testl	%eax, %eax
.Ltmp392:
	.loc	5 209 14                        # stencils.cpp:209:14
	jne	.LBB9_158
.Ltmp393:
# %bb.59:                               #   in Loop: Header=BB9_55 Depth=1
	#DEBUG_VALUE: main:argc <- [DW_OP_LLVM_entry_value 1] $edi
	#DEBUG_VALUE: main:argv <- [DW_OP_LLVM_entry_value 1] $rsi
	#DEBUG_VALUE: main:R <- 4
	#DEBUG_VALUE: main:h <- 1.000000e+00
	#DEBUG_VALUE: main:mx <- [DW_OP_plus_uconst 48, DW_OP_deref] $rsp
	#DEBUG_VALUE: main:line <- [DW_OP_plus_uconst 48, DW_OP_deref] $rsp
	#DEBUG_VALUE: main:slice <- [DW_OP_plus_uconst 56, DW_OP_deref] $rsp
	#DEBUG_VALUE: main:offset <- [DW_OP_plus_uconst 216, DW_OP_deref] $rsp
	#DEBUG_VALUE: main:a <- [DW_OP_LLVM_fragment 64 32] 1.000000e+00
	#DEBUG_VALUE: main:s <- [DW_OP_LLVM_fragment 64 32] 1.000000e+00
	#DEBUG_VALUE: main:theoretical_write <- [DW_OP_plus_uconst 120, DW_OP_deref_size 16, DW_OP_stack_value] $rsp
	#DEBUG_VALUE: main:total_bytes_x <- [DW_OP_plus_uconst 224, DW_OP_deref_size 16, DW_OP_stack_value] $rsp
	#DEBUG_VALUE: main:total_elapsed <- [DW_OP_plus_uconst 8, DW_OP_deref] $rsp
	#DEBUG_VALUE: i <- [DW_OP_LLVM_arg 0, DW_OP_LLVM_arg 1, DW_OP_plus_uconst 52, DW_OP_deref, DW_OP_minus, DW_OP_consts 18446744073709551615, DW_OP_div, DW_OP_stack_value] $r13d, $rsp
	.loc	5 210 44 is_stmt 1              # stencils.cpp:210:44
	movq	40(%rsp), %rsi
	.loc	5 210 51 is_stmt 0              # stencils.cpp:210:51
	movq	16(%rsp), %rdx
	.loc	5 210 14                        # stencils.cpp:210:14
	movq	%r12, %rdi
	callq	hipEventElapsedTime
.Ltmp394:
	.loc	5 210 57                        # stencils.cpp:210:57
	testl	%eax, %eax
.Ltmp395:
	.loc	5 210 14                        # stencils.cpp:210:14
	jne	.LBB9_159
.Ltmp396:
# %bb.60:                               #   in Loop: Header=BB9_55 Depth=1
	#DEBUG_VALUE: main:argc <- [DW_OP_LLVM_entry_value 1] $edi
	#DEBUG_VALUE: main:argv <- [DW_OP_LLVM_entry_value 1] $rsi
	#DEBUG_VALUE: main:R <- 4
	#DEBUG_VALUE: main:h <- 1.000000e+00
	#DEBUG_VALUE: main:mx <- [DW_OP_plus_uconst 48, DW_OP_deref] $rsp
	#DEBUG_VALUE: main:line <- [DW_OP_plus_uconst 48, DW_OP_deref] $rsp
	#DEBUG_VALUE: main:slice <- [DW_OP_plus_uconst 56, DW_OP_deref] $rsp
	#DEBUG_VALUE: main:offset <- [DW_OP_plus_uconst 216, DW_OP_deref] $rsp
	#DEBUG_VALUE: main:a <- [DW_OP_LLVM_fragment 64 32] 1.000000e+00
	#DEBUG_VALUE: main:s <- [DW_OP_LLVM_fragment 64 32] 1.000000e+00
	#DEBUG_VALUE: main:theoretical_write <- [DW_OP_plus_uconst 120, DW_OP_deref_size 16, DW_OP_stack_value] $rsp
	#DEBUG_VALUE: main:total_bytes_x <- [DW_OP_plus_uconst 224, DW_OP_deref_size 16, DW_OP_stack_value] $rsp
	#DEBUG_VALUE: main:total_elapsed <- [DW_OP_plus_uconst 8, DW_OP_deref] $rsp
	#DEBUG_VALUE: i <- [DW_OP_LLVM_arg 0, DW_OP_LLVM_arg 1, DW_OP_plus_uconst 52, DW_OP_deref, DW_OP_minus, DW_OP_consts 18446744073709551615, DW_OP_div, DW_OP_stack_value] $r13d, $rsp
	.loc	5 0 14                          # stencils.cpp:0:14
	movss	8(%rsp), %xmm0                  # 4-byte Reload
                                        # xmm0 = mem[0],zero,zero,zero
	.loc	5 211 23 is_stmt 1              # stencils.cpp:211:23
	addss	28(%rsp), %xmm0
.Ltmp397:
	#DEBUG_VALUE: main:total_elapsed <- $xmm0
	#DEBUG_VALUE: i <- [DW_OP_LLVM_arg 0, DW_OP_LLVM_arg 1, DW_OP_plus_uconst 52, DW_OP_deref, DW_OP_minus, DW_OP_consts 18446744073709551615, DW_OP_div, DW_OP_consts 1, DW_OP_plus, DW_OP_stack_value] $r13d, $rsp
	.loc	5 0 23 is_stmt 0                # stencils.cpp:0:23
	movss	%xmm0, 8(%rsp)                  # 4-byte Spill
.Ltmp398:
	#DEBUG_VALUE: main:total_elapsed <- [DW_OP_plus_uconst 8, DW_OP_deref_size 16, DW_OP_stack_value] $rsp
	.loc	5 204 23 is_stmt 1              # stencils.cpp:204:23
	decl	%r13d
.Ltmp399:
	.loc	5 204 5 is_stmt 0               # stencils.cpp:204:5
	jne	.LBB9_55
	jmp	.LBB9_62
.Ltmp400:
.LBB9_61:
	#DEBUG_VALUE: main:argc <- [DW_OP_LLVM_entry_value 1] $edi
	#DEBUG_VALUE: main:argv <- [DW_OP_LLVM_entry_value 1] $rsi
	#DEBUG_VALUE: main:R <- 4
	#DEBUG_VALUE: main:h <- 1.000000e+00
	#DEBUG_VALUE: main:mx <- [DW_OP_plus_uconst 48, DW_OP_deref] $rsp
	#DEBUG_VALUE: main:line <- [DW_OP_plus_uconst 48, DW_OP_deref] $rsp
	#DEBUG_VALUE: main:slice <- [DW_OP_plus_uconst 56, DW_OP_deref] $rsp
	#DEBUG_VALUE: main:offset <- [DW_OP_plus_uconst 216, DW_OP_deref] $rsp
	#DEBUG_VALUE: main:a <- [DW_OP_LLVM_fragment 64 32] 1.000000e+00
	#DEBUG_VALUE: main:s <- [DW_OP_LLVM_fragment 64 32] 1.000000e+00
	#DEBUG_VALUE: main:theoretical_write <- [DW_OP_plus_uconst 120, DW_OP_deref_size 16, DW_OP_stack_value] $rsp
	#DEBUG_VALUE: main:total_bytes_x <- [DW_OP_plus_uconst 224, DW_OP_deref_size 16, DW_OP_stack_value] $rsp
	#DEBUG_VALUE: main:total_elapsed <- 0.000000e+00
	#DEBUG_VALUE: i <- 0
	.loc	5 0 5                           # stencils.cpp:0:5
	movss	%xmm0, 8(%rsp)                  # 4-byte Spill
.Ltmp401:
.LBB9_62:                               # %._crit_edge569
	#DEBUG_VALUE: main:argc <- [DW_OP_LLVM_entry_value 1] $edi
	#DEBUG_VALUE: main:argv <- [DW_OP_LLVM_entry_value 1] $rsi
	#DEBUG_VALUE: main:R <- 4
	#DEBUG_VALUE: main:h <- 1.000000e+00
	#DEBUG_VALUE: main:mx <- [DW_OP_plus_uconst 48, DW_OP_deref] $rsp
	#DEBUG_VALUE: main:line <- [DW_OP_plus_uconst 48, DW_OP_deref] $rsp
	#DEBUG_VALUE: main:slice <- [DW_OP_plus_uconst 56, DW_OP_deref] $rsp
	#DEBUG_VALUE: main:offset <- [DW_OP_plus_uconst 216, DW_OP_deref] $rsp
	#DEBUG_VALUE: main:a <- [DW_OP_LLVM_fragment 64 32] 1.000000e+00
	#DEBUG_VALUE: main:s <- [DW_OP_LLVM_fragment 64 32] 1.000000e+00
	#DEBUG_VALUE: main:theoretical_write <- [DW_OP_plus_uconst 120, DW_OP_deref_size 16, DW_OP_stack_value] $rsp
	#DEBUG_VALUE: main:total_bytes_x <- [DW_OP_plus_uconst 224, DW_OP_deref_size 16, DW_OP_stack_value] $rsp
	.loc	5 213 29 is_stmt 1              # stencils.cpp:213:29
	movq	32(%rsp), %rdi
	.loc	5 213 38 is_stmt 0              # stencils.cpp:213:38
	movq	72(%rsp), %rsi
	.loc	5 213 14                        # stencils.cpp:213:14
	subq	$8, %rsp
.Ltmp402:
	.cfi_adjust_cfa_offset 8
	.loc	5 0 14                          # stencils.cpp:0:14
	movl	56(%rsp), %edx                  # 4-byte Reload
	movq	64(%rsp), %rcx                  # 8-byte Reload
                                        # kill: def $ecx killed $ecx killed $rcx
	.loc	5 213 14                        # stencils.cpp:213:14
	movl	$4, %r8d
	movl	%ebx, %r9d
	pushq	$-1
	.cfi_adjust_cfa_offset 8
	pushq	%r15
	.cfi_adjust_cfa_offset 8
	pushq	$4
	.cfi_adjust_cfa_offset 8
	pushq	%rbp
	.cfi_adjust_cfa_offset 8
	pushq	$4
	.cfi_adjust_cfa_offset 8
	callq	_Z14max_absval_gpuPfPKfiiiiiiiii
.Ltmp403:
	#DEBUG_VALUE: main:maxval <- $xmm0
	addq	$48, %rsp
	.cfi_adjust_cfa_offset -48
	.loc	5 214 62 is_stmt 1              # stencils.cpp:214:62
	cvtss2sd	%xmm0, %xmm0
.Ltmp404:
	.loc	5 214 5 is_stmt 0               # stencils.cpp:214:5
	movl	$.L.str.13, %edi
	movb	$1, %al
	callq	printf
.Ltmp405:
	.loc	5 0 5                           # stencils.cpp:0:5
	movss	8(%rsp), %xmm0                  # 4-byte Reload
                                        # xmm0 = mem[0],zero,zero,zero
	.loc	5 215 60 is_stmt 1              # stencils.cpp:215:60
	divss	68(%rsp), %xmm0                 # 4-byte Folded Reload
	.loc	5 215 46 is_stmt 0              # stencils.cpp:215:46
	cvtss2sd	%xmm0, %xmm0
	.loc	5 215 5                         # stencils.cpp:215:5
	movl	$.L.str.14, %edi
	movb	$1, %al
	callq	printf
.Ltmp406:
	.loc	5 0 5                           # stencils.cpp:0:5
	movss	8(%rsp), %xmm0                  # 4-byte Reload
                                        # xmm0 = mem[0],zero,zero,zero
	.loc	5 216 75 is_stmt 1              # stencils.cpp:216:75
	xorps	%xmm1, %xmm1
	cvtss2sd	%xmm0, %xmm1
	movsd	88(%rsp), %xmm0                 # 8-byte Reload
                                        # xmm0 = mem[0],zero
	.loc	5 216 73 is_stmt 0              # stencils.cpp:216:73
	divsd	%xmm1, %xmm0
	.loc	5 216 89                        # stencils.cpp:216:89
	divsd	.LCPI9_5(%rip), %xmm0
	.loc	5 216 5                         # stencils.cpp:216:5
	movl	$.L.str.15, %edi
	movb	$1, %al
	callq	printf
.Ltmp407:
	.loc	5 220 5 is_stmt 1               # stencils.cpp:220:5
	movl	$.Lstr.4, %edi
	callq	puts@PLT
.Ltmp408:
	.loc	5 223 20                        # stencils.cpp:223:20
	movq	32(%rsp), %rdi
	.loc	5 223 10 is_stmt 0              # stencils.cpp:223:10
	xorl	%esi, %esi
	movq	96(%rsp), %r14                  # 8-byte Reload
	movq	%r14, %rdx
	callq	hipMemset
.Ltmp409:
	.loc	5 223 51                        # stencils.cpp:223:51
	testl	%eax, %eax
.Ltmp410:
	.loc	5 223 10                        # stencils.cpp:223:10
	jne	.LBB9_193
.Ltmp411:
# %bb.63:                               # %.preheader499
	#DEBUG_VALUE: main:argc <- [DW_OP_LLVM_entry_value 1] $edi
	#DEBUG_VALUE: main:argv <- [DW_OP_LLVM_entry_value 1] $rsi
	#DEBUG_VALUE: main:R <- 4
	#DEBUG_VALUE: main:h <- 1.000000e+00
	#DEBUG_VALUE: main:mx <- [DW_OP_plus_uconst 48, DW_OP_deref] $rsp
	#DEBUG_VALUE: main:line <- [DW_OP_plus_uconst 48, DW_OP_deref] $rsp
	#DEBUG_VALUE: main:slice <- [DW_OP_plus_uconst 56, DW_OP_deref] $rsp
	#DEBUG_VALUE: main:offset <- [DW_OP_plus_uconst 216, DW_OP_deref] $rsp
	#DEBUG_VALUE: main:a <- [DW_OP_LLVM_fragment 64 32] 1.000000e+00
	#DEBUG_VALUE: main:s <- [DW_OP_LLVM_fragment 64 32] 1.000000e+00
	#DEBUG_VALUE: main:theoretical_write <- [DW_OP_plus_uconst 120, DW_OP_deref_size 16, DW_OP_stack_value] $rsp
	#DEBUG_VALUE: main:total_bytes_x <- [DW_OP_plus_uconst 224, DW_OP_deref_size 16, DW_OP_stack_value] $rsp
	.loc	5 0 10                          # stencils.cpp:0:10
	movl	52(%rsp), %r13d                 # 4-byte Reload
	xorpd	%xmm0, %xmm0
.Ltmp412:
	.loc	5 145 23 is_stmt 1              # stencils.cpp:145:23
	testl	%r13d, %r13d
.Ltmp413:
	#DEBUG_VALUE: i <- 0
	#DEBUG_VALUE: main:total_elapsed <- 0.000000e+00
	.loc	5 225 5                         # stencils.cpp:225:5
	jle	.LBB9_71
.Ltmp414:
# %bb.64:                               # %.lr.ph573.preheader
	#DEBUG_VALUE: main:argc <- [DW_OP_LLVM_entry_value 1] $edi
	#DEBUG_VALUE: main:argv <- [DW_OP_LLVM_entry_value 1] $rsi
	#DEBUG_VALUE: main:R <- 4
	#DEBUG_VALUE: main:h <- 1.000000e+00
	#DEBUG_VALUE: main:mx <- [DW_OP_plus_uconst 48, DW_OP_deref] $rsp
	#DEBUG_VALUE: main:line <- [DW_OP_plus_uconst 48, DW_OP_deref] $rsp
	#DEBUG_VALUE: main:slice <- [DW_OP_plus_uconst 56, DW_OP_deref] $rsp
	#DEBUG_VALUE: main:offset <- [DW_OP_plus_uconst 216, DW_OP_deref] $rsp
	#DEBUG_VALUE: main:a <- [DW_OP_LLVM_fragment 64 32] 1.000000e+00
	#DEBUG_VALUE: main:s <- [DW_OP_LLVM_fragment 64 32] 1.000000e+00
	#DEBUG_VALUE: main:theoretical_write <- [DW_OP_plus_uconst 120, DW_OP_deref_size 16, DW_OP_stack_value] $rsp
	#DEBUG_VALUE: main:total_bytes_x <- [DW_OP_plus_uconst 224, DW_OP_deref_size 16, DW_OP_stack_value] $rsp
	#DEBUG_VALUE: main:total_elapsed <- 0.000000e+00
	#DEBUG_VALUE: i <- 0
	.loc	5 0 5 is_stmt 0                 # stencils.cpp:0:5
	movss	%xmm0, 8(%rsp)                  # 4-byte Spill
	leaq	160(%rsp), %r14
	leaq	28(%rsp), %r12
.Ltmp415:
	.p2align	4, 0x90
.LBB9_65:                               # %.lr.ph573
                                        # =>This Inner Loop Header: Depth=1
	#DEBUG_VALUE: main:argc <- [DW_OP_LLVM_entry_value 1] $edi
	#DEBUG_VALUE: main:argv <- [DW_OP_LLVM_entry_value 1] $rsi
	#DEBUG_VALUE: main:R <- 4
	#DEBUG_VALUE: main:h <- 1.000000e+00
	#DEBUG_VALUE: main:mx <- [DW_OP_plus_uconst 48, DW_OP_deref] $rsp
	#DEBUG_VALUE: main:line <- [DW_OP_plus_uconst 48, DW_OP_deref] $rsp
	#DEBUG_VALUE: main:slice <- [DW_OP_plus_uconst 56, DW_OP_deref] $rsp
	#DEBUG_VALUE: main:offset <- [DW_OP_plus_uconst 216, DW_OP_deref] $rsp
	#DEBUG_VALUE: main:a <- [DW_OP_LLVM_fragment 64 32] 1.000000e+00
	#DEBUG_VALUE: main:s <- [DW_OP_LLVM_fragment 64 32] 1.000000e+00
	#DEBUG_VALUE: main:theoretical_write <- [DW_OP_plus_uconst 120, DW_OP_deref_size 16, DW_OP_stack_value] $rsp
	#DEBUG_VALUE: main:total_bytes_x <- [DW_OP_plus_uconst 224, DW_OP_deref_size 16, DW_OP_stack_value] $rsp
	#DEBUG_VALUE: i <- [DW_OP_LLVM_arg 0, DW_OP_LLVM_arg 1, DW_OP_plus_uconst 52, DW_OP_deref, DW_OP_minus, DW_OP_consts 18446744073709551615, DW_OP_div, DW_OP_stack_value] $r13d, $rsp
	#DEBUG_VALUE: main:total_elapsed <- [DW_OP_plus_uconst 8, DW_OP_deref] $rsp
	.loc	5 226 14 is_stmt 1              # stencils.cpp:226:14
	callq	hipDeviceSynchronize
.Ltmp416:
	.loc	5 226 37 is_stmt 0              # stencils.cpp:226:37
	testl	%eax, %eax
.Ltmp417:
	.loc	5 226 14                        # stencils.cpp:226:14
	jne	.LBB9_160
.Ltmp418:
# %bb.66:                               #   in Loop: Header=BB9_65 Depth=1
	#DEBUG_VALUE: main:argc <- [DW_OP_LLVM_entry_value 1] $edi
	#DEBUG_VALUE: main:argv <- [DW_OP_LLVM_entry_value 1] $rsi
	#DEBUG_VALUE: main:R <- 4
	#DEBUG_VALUE: main:h <- 1.000000e+00
	#DEBUG_VALUE: main:mx <- [DW_OP_plus_uconst 48, DW_OP_deref] $rsp
	#DEBUG_VALUE: main:line <- [DW_OP_plus_uconst 48, DW_OP_deref] $rsp
	#DEBUG_VALUE: main:slice <- [DW_OP_plus_uconst 56, DW_OP_deref] $rsp
	#DEBUG_VALUE: main:offset <- [DW_OP_plus_uconst 216, DW_OP_deref] $rsp
	#DEBUG_VALUE: main:a <- [DW_OP_LLVM_fragment 64 32] 1.000000e+00
	#DEBUG_VALUE: main:s <- [DW_OP_LLVM_fragment 64 32] 1.000000e+00
	#DEBUG_VALUE: main:theoretical_write <- [DW_OP_plus_uconst 120, DW_OP_deref_size 16, DW_OP_stack_value] $rsp
	#DEBUG_VALUE: main:total_bytes_x <- [DW_OP_plus_uconst 224, DW_OP_deref_size 16, DW_OP_stack_value] $rsp
	#DEBUG_VALUE: main:total_elapsed <- [DW_OP_plus_uconst 8, DW_OP_deref] $rsp
	#DEBUG_VALUE: i <- [DW_OP_LLVM_arg 0, DW_OP_LLVM_arg 1, DW_OP_plus_uconst 52, DW_OP_deref, DW_OP_minus, DW_OP_consts 18446744073709551615, DW_OP_div, DW_OP_stack_value] $r13d, $rsp
	.loc	5 227 29 is_stmt 1              # stencils.cpp:227:29
	movq	40(%rsp), %rdi
	.loc	5 227 14 is_stmt 0              # stencils.cpp:227:14
	xorl	%esi, %esi
	callq	hipEventRecord
.Ltmp419:
	.loc	5 227 36                        # stencils.cpp:227:36
	testl	%eax, %eax
.Ltmp420:
	.loc	5 227 14                        # stencils.cpp:227:14
	jne	.LBB9_161
.Ltmp421:
# %bb.67:                               #   in Loop: Header=BB9_65 Depth=1
	#DEBUG_VALUE: main:argc <- [DW_OP_LLVM_entry_value 1] $edi
	#DEBUG_VALUE: main:argv <- [DW_OP_LLVM_entry_value 1] $rsi
	#DEBUG_VALUE: main:R <- 4
	#DEBUG_VALUE: main:h <- 1.000000e+00
	#DEBUG_VALUE: main:mx <- [DW_OP_plus_uconst 48, DW_OP_deref] $rsp
	#DEBUG_VALUE: main:line <- [DW_OP_plus_uconst 48, DW_OP_deref] $rsp
	#DEBUG_VALUE: main:slice <- [DW_OP_plus_uconst 56, DW_OP_deref] $rsp
	#DEBUG_VALUE: main:offset <- [DW_OP_plus_uconst 216, DW_OP_deref] $rsp
	#DEBUG_VALUE: main:a <- [DW_OP_LLVM_fragment 64 32] 1.000000e+00
	#DEBUG_VALUE: main:s <- [DW_OP_LLVM_fragment 64 32] 1.000000e+00
	#DEBUG_VALUE: main:theoretical_write <- [DW_OP_plus_uconst 120, DW_OP_deref_size 16, DW_OP_stack_value] $rsp
	#DEBUG_VALUE: main:total_bytes_x <- [DW_OP_plus_uconst 224, DW_OP_deref_size 16, DW_OP_stack_value] $rsp
	#DEBUG_VALUE: main:total_elapsed <- [DW_OP_plus_uconst 8, DW_OP_deref] $rsp
	#DEBUG_VALUE: i <- [DW_OP_LLVM_arg 0, DW_OP_LLVM_arg 1, DW_OP_plus_uconst 52, DW_OP_deref, DW_OP_minus, DW_OP_consts 18446744073709551615, DW_OP_div, DW_OP_stack_value] $r13d, $rsp
	.loc	5 228 33 is_stmt 1              # stencils.cpp:228:33
	movq	32(%rsp), %rdi
	.loc	5 228 42 is_stmt 0              # stencils.cpp:228:42
	movq	80(%rsp), %rsi
	.loc	5 228 9                         # stencils.cpp:228:9
	subq	$8, %rsp
.Ltmp422:
	.cfi_adjust_cfa_offset 8
	movq	%r14, %rdx
	movl	56(%rsp), %ecx                  # 4-byte Reload
	movq	64(%rsp), %r8                   # 8-byte Reload
                                        # kill: def $r8d killed $r8d killed $r8
	movl	$4, %r9d
	pushq	%r15
	.cfi_adjust_cfa_offset 8
	pushq	$4
	.cfi_adjust_cfa_offset 8
	pushq	%rbp
	.cfi_adjust_cfa_offset 8
	pushq	$4
	.cfi_adjust_cfa_offset 8
	pushq	%rbx
	.cfi_adjust_cfa_offset 8
	callq	_Z20compute_fd_y_lds_vecILi4EEvPfPKfS2_iiiiiiii
.Ltmp423:
	addq	$48, %rsp
	.cfi_adjust_cfa_offset -48
.Ltmp424:
	.loc	5 229 29 is_stmt 1              # stencils.cpp:229:29
	movq	16(%rsp), %rdi
	.loc	5 229 14 is_stmt 0              # stencils.cpp:229:14
	xorl	%esi, %esi
	callq	hipEventRecord
.Ltmp425:
	.loc	5 229 35                        # stencils.cpp:229:35
	testl	%eax, %eax
.Ltmp426:
	.loc	5 229 14                        # stencils.cpp:229:14
	jne	.LBB9_162
.Ltmp427:
# %bb.68:                               #   in Loop: Header=BB9_65 Depth=1
	#DEBUG_VALUE: main:argc <- [DW_OP_LLVM_entry_value 1] $edi
	#DEBUG_VALUE: main:argv <- [DW_OP_LLVM_entry_value 1] $rsi
	#DEBUG_VALUE: main:R <- 4
	#DEBUG_VALUE: main:h <- 1.000000e+00
	#DEBUG_VALUE: main:mx <- [DW_OP_plus_uconst 48, DW_OP_deref] $rsp
	#DEBUG_VALUE: main:line <- [DW_OP_plus_uconst 48, DW_OP_deref] $rsp
	#DEBUG_VALUE: main:slice <- [DW_OP_plus_uconst 56, DW_OP_deref] $rsp
	#DEBUG_VALUE: main:offset <- [DW_OP_plus_uconst 216, DW_OP_deref] $rsp
	#DEBUG_VALUE: main:a <- [DW_OP_LLVM_fragment 64 32] 1.000000e+00
	#DEBUG_VALUE: main:s <- [DW_OP_LLVM_fragment 64 32] 1.000000e+00
	#DEBUG_VALUE: main:theoretical_write <- [DW_OP_plus_uconst 120, DW_OP_deref_size 16, DW_OP_stack_value] $rsp
	#DEBUG_VALUE: main:total_bytes_x <- [DW_OP_plus_uconst 224, DW_OP_deref_size 16, DW_OP_stack_value] $rsp
	#DEBUG_VALUE: main:total_elapsed <- [DW_OP_plus_uconst 8, DW_OP_deref] $rsp
	#DEBUG_VALUE: i <- [DW_OP_LLVM_arg 0, DW_OP_LLVM_arg 1, DW_OP_plus_uconst 52, DW_OP_deref, DW_OP_minus, DW_OP_consts 18446744073709551615, DW_OP_div, DW_OP_stack_value] $r13d, $rsp
	.loc	5 230 34 is_stmt 1              # stencils.cpp:230:34
	movq	16(%rsp), %rdi
	.loc	5 230 14 is_stmt 0              # stencils.cpp:230:14
	callq	hipEventSynchronize
.Ltmp428:
	.loc	5 230 40                        # stencils.cpp:230:40
	testl	%eax, %eax
.Ltmp429:
	.loc	5 230 14                        # stencils.cpp:230:14
	jne	.LBB9_163
.Ltmp430:
# %bb.69:                               #   in Loop: Header=BB9_65 Depth=1
	#DEBUG_VALUE: main:argc <- [DW_OP_LLVM_entry_value 1] $edi
	#DEBUG_VALUE: main:argv <- [DW_OP_LLVM_entry_value 1] $rsi
	#DEBUG_VALUE: main:R <- 4
	#DEBUG_VALUE: main:h <- 1.000000e+00
	#DEBUG_VALUE: main:mx <- [DW_OP_plus_uconst 48, DW_OP_deref] $rsp
	#DEBUG_VALUE: main:line <- [DW_OP_plus_uconst 48, DW_OP_deref] $rsp
	#DEBUG_VALUE: main:slice <- [DW_OP_plus_uconst 56, DW_OP_deref] $rsp
	#DEBUG_VALUE: main:offset <- [DW_OP_plus_uconst 216, DW_OP_deref] $rsp
	#DEBUG_VALUE: main:a <- [DW_OP_LLVM_fragment 64 32] 1.000000e+00
	#DEBUG_VALUE: main:s <- [DW_OP_LLVM_fragment 64 32] 1.000000e+00
	#DEBUG_VALUE: main:theoretical_write <- [DW_OP_plus_uconst 120, DW_OP_deref_size 16, DW_OP_stack_value] $rsp
	#DEBUG_VALUE: main:total_bytes_x <- [DW_OP_plus_uconst 224, DW_OP_deref_size 16, DW_OP_stack_value] $rsp
	#DEBUG_VALUE: main:total_elapsed <- [DW_OP_plus_uconst 8, DW_OP_deref] $rsp
	#DEBUG_VALUE: i <- [DW_OP_LLVM_arg 0, DW_OP_LLVM_arg 1, DW_OP_plus_uconst 52, DW_OP_deref, DW_OP_minus, DW_OP_consts 18446744073709551615, DW_OP_div, DW_OP_stack_value] $r13d, $rsp
	.loc	5 231 44 is_stmt 1              # stencils.cpp:231:44
	movq	40(%rsp), %rsi
	.loc	5 231 51 is_stmt 0              # stencils.cpp:231:51
	movq	16(%rsp), %rdx
	.loc	5 231 14                        # stencils.cpp:231:14
	movq	%r12, %rdi
	callq	hipEventElapsedTime
.Ltmp431:
	.loc	5 231 57                        # stencils.cpp:231:57
	testl	%eax, %eax
.Ltmp432:
	.loc	5 231 14                        # stencils.cpp:231:14
	jne	.LBB9_164
.Ltmp433:
# %bb.70:                               #   in Loop: Header=BB9_65 Depth=1
	#DEBUG_VALUE: main:argc <- [DW_OP_LLVM_entry_value 1] $edi
	#DEBUG_VALUE: main:argv <- [DW_OP_LLVM_entry_value 1] $rsi
	#DEBUG_VALUE: main:R <- 4
	#DEBUG_VALUE: main:h <- 1.000000e+00
	#DEBUG_VALUE: main:mx <- [DW_OP_plus_uconst 48, DW_OP_deref] $rsp
	#DEBUG_VALUE: main:line <- [DW_OP_plus_uconst 48, DW_OP_deref] $rsp
	#DEBUG_VALUE: main:slice <- [DW_OP_plus_uconst 56, DW_OP_deref] $rsp
	#DEBUG_VALUE: main:offset <- [DW_OP_plus_uconst 216, DW_OP_deref] $rsp
	#DEBUG_VALUE: main:a <- [DW_OP_LLVM_fragment 64 32] 1.000000e+00
	#DEBUG_VALUE: main:s <- [DW_OP_LLVM_fragment 64 32] 1.000000e+00
	#DEBUG_VALUE: main:theoretical_write <- [DW_OP_plus_uconst 120, DW_OP_deref_size 16, DW_OP_stack_value] $rsp
	#DEBUG_VALUE: main:total_bytes_x <- [DW_OP_plus_uconst 224, DW_OP_deref_size 16, DW_OP_stack_value] $rsp
	#DEBUG_VALUE: main:total_elapsed <- [DW_OP_plus_uconst 8, DW_OP_deref] $rsp
	#DEBUG_VALUE: i <- [DW_OP_LLVM_arg 0, DW_OP_LLVM_arg 1, DW_OP_plus_uconst 52, DW_OP_deref, DW_OP_minus, DW_OP_consts 18446744073709551615, DW_OP_div, DW_OP_stack_value] $r13d, $rsp
	.loc	5 0 14                          # stencils.cpp:0:14
	movss	8(%rsp), %xmm0                  # 4-byte Reload
                                        # xmm0 = mem[0],zero,zero,zero
	.loc	5 232 23 is_stmt 1              # stencils.cpp:232:23
	addss	28(%rsp), %xmm0
.Ltmp434:
	#DEBUG_VALUE: main:total_elapsed <- $xmm0
	#DEBUG_VALUE: i <- [DW_OP_LLVM_arg 0, DW_OP_LLVM_arg 1, DW_OP_plus_uconst 52, DW_OP_deref, DW_OP_minus, DW_OP_consts 18446744073709551615, DW_OP_div, DW_OP_consts 1, DW_OP_plus, DW_OP_stack_value] $r13d, $rsp
	.loc	5 0 23 is_stmt 0                # stencils.cpp:0:23
	movss	%xmm0, 8(%rsp)                  # 4-byte Spill
.Ltmp435:
	#DEBUG_VALUE: main:total_elapsed <- [DW_OP_plus_uconst 8, DW_OP_deref_size 16, DW_OP_stack_value] $rsp
	.loc	5 225 23 is_stmt 1              # stencils.cpp:225:23
	decl	%r13d
.Ltmp436:
	.loc	5 0 23 is_stmt 0                # stencils.cpp:0:23
	jne	.LBB9_65
	jmp	.LBB9_72
.Ltmp437:
.LBB9_71:
	#DEBUG_VALUE: main:argc <- [DW_OP_LLVM_entry_value 1] $edi
	#DEBUG_VALUE: main:argv <- [DW_OP_LLVM_entry_value 1] $rsi
	#DEBUG_VALUE: main:R <- 4
	#DEBUG_VALUE: main:h <- 1.000000e+00
	#DEBUG_VALUE: main:mx <- [DW_OP_plus_uconst 48, DW_OP_deref] $rsp
	#DEBUG_VALUE: main:line <- [DW_OP_plus_uconst 48, DW_OP_deref] $rsp
	#DEBUG_VALUE: main:slice <- [DW_OP_plus_uconst 56, DW_OP_deref] $rsp
	#DEBUG_VALUE: main:offset <- [DW_OP_plus_uconst 216, DW_OP_deref] $rsp
	#DEBUG_VALUE: main:a <- [DW_OP_LLVM_fragment 64 32] 1.000000e+00
	#DEBUG_VALUE: main:s <- [DW_OP_LLVM_fragment 64 32] 1.000000e+00
	#DEBUG_VALUE: main:theoretical_write <- [DW_OP_plus_uconst 120, DW_OP_deref_size 16, DW_OP_stack_value] $rsp
	#DEBUG_VALUE: main:total_bytes_x <- [DW_OP_plus_uconst 224, DW_OP_deref_size 16, DW_OP_stack_value] $rsp
	#DEBUG_VALUE: main:total_elapsed <- 0.000000e+00
	#DEBUG_VALUE: i <- 0
	movss	%xmm0, 8(%rsp)                  # 4-byte Spill
.Ltmp438:
.LBB9_72:                               # %._crit_edge574
	#DEBUG_VALUE: main:argc <- [DW_OP_LLVM_entry_value 1] $edi
	#DEBUG_VALUE: main:argv <- [DW_OP_LLVM_entry_value 1] $rsi
	#DEBUG_VALUE: main:R <- 4
	#DEBUG_VALUE: main:h <- 1.000000e+00
	#DEBUG_VALUE: main:mx <- [DW_OP_plus_uconst 48, DW_OP_deref] $rsp
	#DEBUG_VALUE: main:line <- [DW_OP_plus_uconst 48, DW_OP_deref] $rsp
	#DEBUG_VALUE: main:slice <- [DW_OP_plus_uconst 56, DW_OP_deref] $rsp
	#DEBUG_VALUE: main:offset <- [DW_OP_plus_uconst 216, DW_OP_deref] $rsp
	#DEBUG_VALUE: main:a <- [DW_OP_LLVM_fragment 64 32] 1.000000e+00
	#DEBUG_VALUE: main:s <- [DW_OP_LLVM_fragment 64 32] 1.000000e+00
	#DEBUG_VALUE: main:theoretical_write <- [DW_OP_plus_uconst 120, DW_OP_deref_size 16, DW_OP_stack_value] $rsp
	#DEBUG_VALUE: main:total_bytes_x <- [DW_OP_plus_uconst 224, DW_OP_deref_size 16, DW_OP_stack_value] $rsp
	.loc	5 234 29 is_stmt 1              # stencils.cpp:234:29
	movq	32(%rsp), %rdi
	.loc	5 234 38 is_stmt 0              # stencils.cpp:234:38
	movq	72(%rsp), %rsi
	.loc	5 234 14                        # stencils.cpp:234:14
	subq	$8, %rsp
.Ltmp439:
	.cfi_adjust_cfa_offset 8
	.loc	5 0 14                          # stencils.cpp:0:14
	movl	56(%rsp), %edx                  # 4-byte Reload
	movq	64(%rsp), %rcx                  # 8-byte Reload
                                        # kill: def $ecx killed $ecx killed $rcx
	.loc	5 234 14                        # stencils.cpp:234:14
	movl	$4, %r8d
	movl	%ebx, %r9d
	pushq	$-1
	.cfi_adjust_cfa_offset 8
	pushq	%r15
	.cfi_adjust_cfa_offset 8
	pushq	$4
	.cfi_adjust_cfa_offset 8
	pushq	%rbp
	.cfi_adjust_cfa_offset 8
	pushq	$4
	.cfi_adjust_cfa_offset 8
	callq	_Z14max_absval_gpuPfPKfiiiiiiiii
.Ltmp440:
	#DEBUG_VALUE: main:maxval <- $xmm0
	addq	$48, %rsp
	.cfi_adjust_cfa_offset -48
	.loc	5 235 62 is_stmt 1              # stencils.cpp:235:62
	cvtss2sd	%xmm0, %xmm0
.Ltmp441:
	.loc	5 235 5 is_stmt 0               # stencils.cpp:235:5
	movl	$.L.str.13, %edi
	movb	$1, %al
	callq	printf
.Ltmp442:
	.loc	5 0 5                           # stencils.cpp:0:5
	movss	8(%rsp), %xmm0                  # 4-byte Reload
                                        # xmm0 = mem[0],zero,zero,zero
	.loc	5 236 60 is_stmt 1              # stencils.cpp:236:60
	divss	68(%rsp), %xmm0                 # 4-byte Folded Reload
	.loc	5 236 46 is_stmt 0              # stencils.cpp:236:46
	cvtss2sd	%xmm0, %xmm0
	.loc	5 236 5                         # stencils.cpp:236:5
	movl	$.L.str.14, %edi
	movb	$1, %al
	callq	printf
.Ltmp443:
	.loc	5 0 5                           # stencils.cpp:0:5
	movss	8(%rsp), %xmm0                  # 4-byte Reload
                                        # xmm0 = mem[0],zero,zero,zero
	.loc	5 237 75 is_stmt 1              # stencils.cpp:237:75
	xorps	%xmm1, %xmm1
	cvtss2sd	%xmm0, %xmm1
	movsd	88(%rsp), %xmm0                 # 8-byte Reload
                                        # xmm0 = mem[0],zero
	.loc	5 237 73 is_stmt 0              # stencils.cpp:237:73
	divsd	%xmm1, %xmm0
	.loc	5 237 89                        # stencils.cpp:237:89
	divsd	.LCPI9_5(%rip), %xmm0
	.loc	5 237 5                         # stencils.cpp:237:5
	movl	$.L.str.15, %edi
	movb	$1, %al
	callq	printf
.Ltmp444:
.LBB9_73:
	#DEBUG_VALUE: main:argc <- [DW_OP_LLVM_entry_value 1] $edi
	#DEBUG_VALUE: main:argv <- [DW_OP_LLVM_entry_value 1] $rsi
	#DEBUG_VALUE: main:R <- 4
	#DEBUG_VALUE: main:h <- 1.000000e+00
	#DEBUG_VALUE: main:mx <- [DW_OP_plus_uconst 48, DW_OP_deref] $rsp
	#DEBUG_VALUE: main:line <- [DW_OP_plus_uconst 48, DW_OP_deref] $rsp
	#DEBUG_VALUE: main:slice <- [DW_OP_plus_uconst 56, DW_OP_deref] $rsp
	#DEBUG_VALUE: main:offset <- [DW_OP_plus_uconst 216, DW_OP_deref] $rsp
	#DEBUG_VALUE: main:a <- [DW_OP_LLVM_fragment 64 32] 1.000000e+00
	#DEBUG_VALUE: main:s <- [DW_OP_LLVM_fragment 64 32] 1.000000e+00
	#DEBUG_VALUE: main:theoretical_write <- [DW_OP_plus_uconst 120, DW_OP_deref_size 16, DW_OP_stack_value] $rsp
	#DEBUG_VALUE: main:total_bytes_x <- [DW_OP_plus_uconst 224, DW_OP_deref_size 16, DW_OP_stack_value] $rsp
	.loc	5 0 5                           # stencils.cpp:0:5
	movl	52(%rsp), %r13d                 # 4-byte Reload
	.loc	5 240 5 is_stmt 1               # stencils.cpp:240:5
	movl	$.Lstr.5, %edi
	callq	puts@PLT
.Ltmp445:
	.loc	5 241 20                        # stencils.cpp:241:20
	movq	32(%rsp), %rdi
	.loc	5 241 10 is_stmt 0              # stencils.cpp:241:10
	xorl	%esi, %esi
	movq	96(%rsp), %r14                  # 8-byte Reload
	movq	%r14, %rdx
	callq	hipMemset
.Ltmp446:
	.loc	5 241 51                        # stencils.cpp:241:51
	testl	%eax, %eax
.Ltmp447:
	.loc	5 241 10                        # stencils.cpp:241:10
	jne	.LBB9_189
.Ltmp448:
# %bb.74:                               # %.preheader498
	#DEBUG_VALUE: main:argc <- [DW_OP_LLVM_entry_value 1] $edi
	#DEBUG_VALUE: main:argv <- [DW_OP_LLVM_entry_value 1] $rsi
	#DEBUG_VALUE: main:R <- 4
	#DEBUG_VALUE: main:h <- 1.000000e+00
	#DEBUG_VALUE: main:mx <- [DW_OP_plus_uconst 48, DW_OP_deref] $rsp
	#DEBUG_VALUE: main:line <- [DW_OP_plus_uconst 48, DW_OP_deref] $rsp
	#DEBUG_VALUE: main:slice <- [DW_OP_plus_uconst 56, DW_OP_deref] $rsp
	#DEBUG_VALUE: main:offset <- [DW_OP_plus_uconst 216, DW_OP_deref] $rsp
	#DEBUG_VALUE: main:a <- [DW_OP_LLVM_fragment 64 32] 1.000000e+00
	#DEBUG_VALUE: main:s <- [DW_OP_LLVM_fragment 64 32] 1.000000e+00
	#DEBUG_VALUE: main:theoretical_write <- [DW_OP_plus_uconst 120, DW_OP_deref_size 16, DW_OP_stack_value] $rsp
	#DEBUG_VALUE: main:total_bytes_x <- [DW_OP_plus_uconst 224, DW_OP_deref_size 16, DW_OP_stack_value] $rsp
	.loc	5 0 10                          # stencils.cpp:0:10
	xorpd	%xmm0, %xmm0
.Ltmp449:
	.loc	5 145 23 is_stmt 1              # stencils.cpp:145:23
	testl	%r13d, %r13d
.Ltmp450:
	#DEBUG_VALUE: i <- 0
	#DEBUG_VALUE: main:total_elapsed <- 0.000000e+00
	.loc	5 243 5                         # stencils.cpp:243:5
	jle	.LBB9_82
.Ltmp451:
# %bb.75:                               # %.lr.ph578.preheader
	#DEBUG_VALUE: main:argc <- [DW_OP_LLVM_entry_value 1] $edi
	#DEBUG_VALUE: main:argv <- [DW_OP_LLVM_entry_value 1] $rsi
	#DEBUG_VALUE: main:R <- 4
	#DEBUG_VALUE: main:h <- 1.000000e+00
	#DEBUG_VALUE: main:mx <- [DW_OP_plus_uconst 48, DW_OP_deref] $rsp
	#DEBUG_VALUE: main:line <- [DW_OP_plus_uconst 48, DW_OP_deref] $rsp
	#DEBUG_VALUE: main:slice <- [DW_OP_plus_uconst 56, DW_OP_deref] $rsp
	#DEBUG_VALUE: main:offset <- [DW_OP_plus_uconst 216, DW_OP_deref] $rsp
	#DEBUG_VALUE: main:a <- [DW_OP_LLVM_fragment 64 32] 1.000000e+00
	#DEBUG_VALUE: main:s <- [DW_OP_LLVM_fragment 64 32] 1.000000e+00
	#DEBUG_VALUE: main:theoretical_write <- [DW_OP_plus_uconst 120, DW_OP_deref_size 16, DW_OP_stack_value] $rsp
	#DEBUG_VALUE: main:total_bytes_x <- [DW_OP_plus_uconst 224, DW_OP_deref_size 16, DW_OP_stack_value] $rsp
	#DEBUG_VALUE: main:total_elapsed <- 0.000000e+00
	#DEBUG_VALUE: i <- 0
	.loc	5 0 5 is_stmt 0                 # stencils.cpp:0:5
	movss	%xmm0, 8(%rsp)                  # 4-byte Spill
	leaq	160(%rsp), %r14
	leaq	28(%rsp), %r12
.Ltmp452:
	.p2align	4, 0x90
.LBB9_76:                               # %.lr.ph578
                                        # =>This Inner Loop Header: Depth=1
	#DEBUG_VALUE: main:argc <- [DW_OP_LLVM_entry_value 1] $edi
	#DEBUG_VALUE: main:argv <- [DW_OP_LLVM_entry_value 1] $rsi
	#DEBUG_VALUE: main:R <- 4
	#DEBUG_VALUE: main:h <- 1.000000e+00
	#DEBUG_VALUE: main:mx <- [DW_OP_plus_uconst 48, DW_OP_deref] $rsp
	#DEBUG_VALUE: main:line <- [DW_OP_plus_uconst 48, DW_OP_deref] $rsp
	#DEBUG_VALUE: main:slice <- [DW_OP_plus_uconst 56, DW_OP_deref] $rsp
	#DEBUG_VALUE: main:offset <- [DW_OP_plus_uconst 216, DW_OP_deref] $rsp
	#DEBUG_VALUE: main:a <- [DW_OP_LLVM_fragment 64 32] 1.000000e+00
	#DEBUG_VALUE: main:s <- [DW_OP_LLVM_fragment 64 32] 1.000000e+00
	#DEBUG_VALUE: main:theoretical_write <- [DW_OP_plus_uconst 120, DW_OP_deref_size 16, DW_OP_stack_value] $rsp
	#DEBUG_VALUE: main:total_bytes_x <- [DW_OP_plus_uconst 224, DW_OP_deref_size 16, DW_OP_stack_value] $rsp
	#DEBUG_VALUE: i <- [DW_OP_LLVM_arg 0, DW_OP_LLVM_arg 1, DW_OP_plus_uconst 52, DW_OP_deref, DW_OP_minus, DW_OP_consts 18446744073709551615, DW_OP_div, DW_OP_stack_value] $r13d, $rsp
	#DEBUG_VALUE: main:total_elapsed <- [DW_OP_plus_uconst 8, DW_OP_deref] $rsp
	.loc	5 244 14 is_stmt 1              # stencils.cpp:244:14
	callq	hipDeviceSynchronize
.Ltmp453:
	.loc	5 244 37 is_stmt 0              # stencils.cpp:244:37
	testl	%eax, %eax
.Ltmp454:
	.loc	5 244 14                        # stencils.cpp:244:14
	jne	.LBB9_140
.Ltmp455:
# %bb.77:                               #   in Loop: Header=BB9_76 Depth=1
	#DEBUG_VALUE: main:argc <- [DW_OP_LLVM_entry_value 1] $edi
	#DEBUG_VALUE: main:argv <- [DW_OP_LLVM_entry_value 1] $rsi
	#DEBUG_VALUE: main:R <- 4
	#DEBUG_VALUE: main:h <- 1.000000e+00
	#DEBUG_VALUE: main:mx <- [DW_OP_plus_uconst 48, DW_OP_deref] $rsp
	#DEBUG_VALUE: main:line <- [DW_OP_plus_uconst 48, DW_OP_deref] $rsp
	#DEBUG_VALUE: main:slice <- [DW_OP_plus_uconst 56, DW_OP_deref] $rsp
	#DEBUG_VALUE: main:offset <- [DW_OP_plus_uconst 216, DW_OP_deref] $rsp
	#DEBUG_VALUE: main:a <- [DW_OP_LLVM_fragment 64 32] 1.000000e+00
	#DEBUG_VALUE: main:s <- [DW_OP_LLVM_fragment 64 32] 1.000000e+00
	#DEBUG_VALUE: main:theoretical_write <- [DW_OP_plus_uconst 120, DW_OP_deref_size 16, DW_OP_stack_value] $rsp
	#DEBUG_VALUE: main:total_bytes_x <- [DW_OP_plus_uconst 224, DW_OP_deref_size 16, DW_OP_stack_value] $rsp
	#DEBUG_VALUE: main:total_elapsed <- [DW_OP_plus_uconst 8, DW_OP_deref] $rsp
	#DEBUG_VALUE: i <- [DW_OP_LLVM_arg 0, DW_OP_LLVM_arg 1, DW_OP_plus_uconst 52, DW_OP_deref, DW_OP_minus, DW_OP_consts 18446744073709551615, DW_OP_div, DW_OP_stack_value] $r13d, $rsp
	.loc	5 245 29 is_stmt 1              # stencils.cpp:245:29
	movq	40(%rsp), %rdi
	.loc	5 245 14 is_stmt 0              # stencils.cpp:245:14
	xorl	%esi, %esi
	callq	hipEventRecord
.Ltmp456:
	.loc	5 245 36                        # stencils.cpp:245:36
	testl	%eax, %eax
.Ltmp457:
	.loc	5 245 14                        # stencils.cpp:245:14
	jne	.LBB9_141
.Ltmp458:
# %bb.78:                               #   in Loop: Header=BB9_76 Depth=1
	#DEBUG_VALUE: main:argc <- [DW_OP_LLVM_entry_value 1] $edi
	#DEBUG_VALUE: main:argv <- [DW_OP_LLVM_entry_value 1] $rsi
	#DEBUG_VALUE: main:R <- 4
	#DEBUG_VALUE: main:h <- 1.000000e+00
	#DEBUG_VALUE: main:mx <- [DW_OP_plus_uconst 48, DW_OP_deref] $rsp
	#DEBUG_VALUE: main:line <- [DW_OP_plus_uconst 48, DW_OP_deref] $rsp
	#DEBUG_VALUE: main:slice <- [DW_OP_plus_uconst 56, DW_OP_deref] $rsp
	#DEBUG_VALUE: main:offset <- [DW_OP_plus_uconst 216, DW_OP_deref] $rsp
	#DEBUG_VALUE: main:a <- [DW_OP_LLVM_fragment 64 32] 1.000000e+00
	#DEBUG_VALUE: main:s <- [DW_OP_LLVM_fragment 64 32] 1.000000e+00
	#DEBUG_VALUE: main:theoretical_write <- [DW_OP_plus_uconst 120, DW_OP_deref_size 16, DW_OP_stack_value] $rsp
	#DEBUG_VALUE: main:total_bytes_x <- [DW_OP_plus_uconst 224, DW_OP_deref_size 16, DW_OP_stack_value] $rsp
	#DEBUG_VALUE: main:total_elapsed <- [DW_OP_plus_uconst 8, DW_OP_deref] $rsp
	#DEBUG_VALUE: i <- [DW_OP_LLVM_arg 0, DW_OP_LLVM_arg 1, DW_OP_plus_uconst 52, DW_OP_deref, DW_OP_minus, DW_OP_consts 18446744073709551615, DW_OP_div, DW_OP_stack_value] $r13d, $rsp
	.loc	5 246 25 is_stmt 1              # stencils.cpp:246:25
	movq	32(%rsp), %rdi
	.loc	5 246 34 is_stmt 0              # stencils.cpp:246:34
	movq	80(%rsp), %rsi
	.loc	5 246 9                         # stencils.cpp:246:9
	subq	$8, %rsp
.Ltmp459:
	.cfi_adjust_cfa_offset 8
	movq	%r14, %rdx
	movl	56(%rsp), %ecx                  # 4-byte Reload
	movq	64(%rsp), %r8                   # 8-byte Reload
                                        # kill: def $r8d killed $r8d killed $r8
	movl	$4, %r9d
	pushq	%r15
	.cfi_adjust_cfa_offset 8
	pushq	$4
	.cfi_adjust_cfa_offset 8
	pushq	%rbp
	.cfi_adjust_cfa_offset 8
	pushq	$4
	.cfi_adjust_cfa_offset 8
	pushq	%rbx
	.cfi_adjust_cfa_offset 8
	callq	_Z12compute_fd_zILi4EEvPfPKfS2_iiiiiiii
.Ltmp460:
	addq	$48, %rsp
	.cfi_adjust_cfa_offset -48
.Ltmp461:
	.loc	5 247 29 is_stmt 1              # stencils.cpp:247:29
	movq	16(%rsp), %rdi
	.loc	5 247 14 is_stmt 0              # stencils.cpp:247:14
	xorl	%esi, %esi
	callq	hipEventRecord
.Ltmp462:
	.loc	5 247 35                        # stencils.cpp:247:35
	testl	%eax, %eax
.Ltmp463:
	.loc	5 247 14                        # stencils.cpp:247:14
	jne	.LBB9_142
.Ltmp464:
# %bb.79:                               #   in Loop: Header=BB9_76 Depth=1
	#DEBUG_VALUE: main:argc <- [DW_OP_LLVM_entry_value 1] $edi
	#DEBUG_VALUE: main:argv <- [DW_OP_LLVM_entry_value 1] $rsi
	#DEBUG_VALUE: main:R <- 4
	#DEBUG_VALUE: main:h <- 1.000000e+00
	#DEBUG_VALUE: main:mx <- [DW_OP_plus_uconst 48, DW_OP_deref] $rsp
	#DEBUG_VALUE: main:line <- [DW_OP_plus_uconst 48, DW_OP_deref] $rsp
	#DEBUG_VALUE: main:slice <- [DW_OP_plus_uconst 56, DW_OP_deref] $rsp
	#DEBUG_VALUE: main:offset <- [DW_OP_plus_uconst 216, DW_OP_deref] $rsp
	#DEBUG_VALUE: main:a <- [DW_OP_LLVM_fragment 64 32] 1.000000e+00
	#DEBUG_VALUE: main:s <- [DW_OP_LLVM_fragment 64 32] 1.000000e+00
	#DEBUG_VALUE: main:theoretical_write <- [DW_OP_plus_uconst 120, DW_OP_deref_size 16, DW_OP_stack_value] $rsp
	#DEBUG_VALUE: main:total_bytes_x <- [DW_OP_plus_uconst 224, DW_OP_deref_size 16, DW_OP_stack_value] $rsp
	#DEBUG_VALUE: main:total_elapsed <- [DW_OP_plus_uconst 8, DW_OP_deref] $rsp
	#DEBUG_VALUE: i <- [DW_OP_LLVM_arg 0, DW_OP_LLVM_arg 1, DW_OP_plus_uconst 52, DW_OP_deref, DW_OP_minus, DW_OP_consts 18446744073709551615, DW_OP_div, DW_OP_stack_value] $r13d, $rsp
	.loc	5 248 34 is_stmt 1              # stencils.cpp:248:34
	movq	16(%rsp), %rdi
	.loc	5 248 14 is_stmt 0              # stencils.cpp:248:14
	callq	hipEventSynchronize
.Ltmp465:
	.loc	5 248 40                        # stencils.cpp:248:40
	testl	%eax, %eax
.Ltmp466:
	.loc	5 248 14                        # stencils.cpp:248:14
	jne	.LBB9_143
.Ltmp467:
# %bb.80:                               #   in Loop: Header=BB9_76 Depth=1
	#DEBUG_VALUE: main:argc <- [DW_OP_LLVM_entry_value 1] $edi
	#DEBUG_VALUE: main:argv <- [DW_OP_LLVM_entry_value 1] $rsi
	#DEBUG_VALUE: main:R <- 4
	#DEBUG_VALUE: main:h <- 1.000000e+00
	#DEBUG_VALUE: main:mx <- [DW_OP_plus_uconst 48, DW_OP_deref] $rsp
	#DEBUG_VALUE: main:line <- [DW_OP_plus_uconst 48, DW_OP_deref] $rsp
	#DEBUG_VALUE: main:slice <- [DW_OP_plus_uconst 56, DW_OP_deref] $rsp
	#DEBUG_VALUE: main:offset <- [DW_OP_plus_uconst 216, DW_OP_deref] $rsp
	#DEBUG_VALUE: main:a <- [DW_OP_LLVM_fragment 64 32] 1.000000e+00
	#DEBUG_VALUE: main:s <- [DW_OP_LLVM_fragment 64 32] 1.000000e+00
	#DEBUG_VALUE: main:theoretical_write <- [DW_OP_plus_uconst 120, DW_OP_deref_size 16, DW_OP_stack_value] $rsp
	#DEBUG_VALUE: main:total_bytes_x <- [DW_OP_plus_uconst 224, DW_OP_deref_size 16, DW_OP_stack_value] $rsp
	#DEBUG_VALUE: main:total_elapsed <- [DW_OP_plus_uconst 8, DW_OP_deref] $rsp
	#DEBUG_VALUE: i <- [DW_OP_LLVM_arg 0, DW_OP_LLVM_arg 1, DW_OP_plus_uconst 52, DW_OP_deref, DW_OP_minus, DW_OP_consts 18446744073709551615, DW_OP_div, DW_OP_stack_value] $r13d, $rsp
	.loc	5 249 44 is_stmt 1              # stencils.cpp:249:44
	movq	40(%rsp), %rsi
	.loc	5 249 51 is_stmt 0              # stencils.cpp:249:51
	movq	16(%rsp), %rdx
	.loc	5 249 14                        # stencils.cpp:249:14
	movq	%r12, %rdi
	callq	hipEventElapsedTime
.Ltmp468:
	.loc	5 249 57                        # stencils.cpp:249:57
	testl	%eax, %eax
.Ltmp469:
	.loc	5 249 14                        # stencils.cpp:249:14
	jne	.LBB9_144
.Ltmp470:
# %bb.81:                               #   in Loop: Header=BB9_76 Depth=1
	#DEBUG_VALUE: main:argc <- [DW_OP_LLVM_entry_value 1] $edi
	#DEBUG_VALUE: main:argv <- [DW_OP_LLVM_entry_value 1] $rsi
	#DEBUG_VALUE: main:R <- 4
	#DEBUG_VALUE: main:h <- 1.000000e+00
	#DEBUG_VALUE: main:mx <- [DW_OP_plus_uconst 48, DW_OP_deref] $rsp
	#DEBUG_VALUE: main:line <- [DW_OP_plus_uconst 48, DW_OP_deref] $rsp
	#DEBUG_VALUE: main:slice <- [DW_OP_plus_uconst 56, DW_OP_deref] $rsp
	#DEBUG_VALUE: main:offset <- [DW_OP_plus_uconst 216, DW_OP_deref] $rsp
	#DEBUG_VALUE: main:a <- [DW_OP_LLVM_fragment 64 32] 1.000000e+00
	#DEBUG_VALUE: main:s <- [DW_OP_LLVM_fragment 64 32] 1.000000e+00
	#DEBUG_VALUE: main:theoretical_write <- [DW_OP_plus_uconst 120, DW_OP_deref_size 16, DW_OP_stack_value] $rsp
	#DEBUG_VALUE: main:total_bytes_x <- [DW_OP_plus_uconst 224, DW_OP_deref_size 16, DW_OP_stack_value] $rsp
	#DEBUG_VALUE: main:total_elapsed <- [DW_OP_plus_uconst 8, DW_OP_deref] $rsp
	#DEBUG_VALUE: i <- [DW_OP_LLVM_arg 0, DW_OP_LLVM_arg 1, DW_OP_plus_uconst 52, DW_OP_deref, DW_OP_minus, DW_OP_consts 18446744073709551615, DW_OP_div, DW_OP_stack_value] $r13d, $rsp
	.loc	5 0 14                          # stencils.cpp:0:14
	movss	8(%rsp), %xmm0                  # 4-byte Reload
                                        # xmm0 = mem[0],zero,zero,zero
	.loc	5 250 23 is_stmt 1              # stencils.cpp:250:23
	addss	28(%rsp), %xmm0
.Ltmp471:
	#DEBUG_VALUE: main:total_elapsed <- $xmm0
	#DEBUG_VALUE: i <- [DW_OP_LLVM_arg 0, DW_OP_LLVM_arg 1, DW_OP_plus_uconst 52, DW_OP_deref, DW_OP_minus, DW_OP_consts 18446744073709551615, DW_OP_div, DW_OP_consts 1, DW_OP_plus, DW_OP_stack_value] $r13d, $rsp
	.loc	5 0 23 is_stmt 0                # stencils.cpp:0:23
	movss	%xmm0, 8(%rsp)                  # 4-byte Spill
.Ltmp472:
	#DEBUG_VALUE: main:total_elapsed <- [DW_OP_plus_uconst 8, DW_OP_deref_size 16, DW_OP_stack_value] $rsp
	.loc	5 243 23 is_stmt 1              # stencils.cpp:243:23
	decl	%r13d
.Ltmp473:
	.loc	5 0 23 is_stmt 0                # stencils.cpp:0:23
	jne	.LBB9_76
	jmp	.LBB9_83
.Ltmp474:
.LBB9_82:
	#DEBUG_VALUE: main:argc <- [DW_OP_LLVM_entry_value 1] $edi
	#DEBUG_VALUE: main:argv <- [DW_OP_LLVM_entry_value 1] $rsi
	#DEBUG_VALUE: main:R <- 4
	#DEBUG_VALUE: main:h <- 1.000000e+00
	#DEBUG_VALUE: main:mx <- [DW_OP_plus_uconst 48, DW_OP_deref] $rsp
	#DEBUG_VALUE: main:line <- [DW_OP_plus_uconst 48, DW_OP_deref] $rsp
	#DEBUG_VALUE: main:slice <- [DW_OP_plus_uconst 56, DW_OP_deref] $rsp
	#DEBUG_VALUE: main:offset <- [DW_OP_plus_uconst 216, DW_OP_deref] $rsp
	#DEBUG_VALUE: main:a <- [DW_OP_LLVM_fragment 64 32] 1.000000e+00
	#DEBUG_VALUE: main:s <- [DW_OP_LLVM_fragment 64 32] 1.000000e+00
	#DEBUG_VALUE: main:theoretical_write <- [DW_OP_plus_uconst 120, DW_OP_deref_size 16, DW_OP_stack_value] $rsp
	#DEBUG_VALUE: main:total_bytes_x <- [DW_OP_plus_uconst 224, DW_OP_deref_size 16, DW_OP_stack_value] $rsp
	#DEBUG_VALUE: main:total_elapsed <- 0.000000e+00
	#DEBUG_VALUE: i <- 0
	movss	%xmm0, 8(%rsp)                  # 4-byte Spill
.Ltmp475:
.LBB9_83:                               # %._crit_edge579
	#DEBUG_VALUE: main:argc <- [DW_OP_LLVM_entry_value 1] $edi
	#DEBUG_VALUE: main:argv <- [DW_OP_LLVM_entry_value 1] $rsi
	#DEBUG_VALUE: main:R <- 4
	#DEBUG_VALUE: main:h <- 1.000000e+00
	#DEBUG_VALUE: main:mx <- [DW_OP_plus_uconst 48, DW_OP_deref] $rsp
	#DEBUG_VALUE: main:line <- [DW_OP_plus_uconst 48, DW_OP_deref] $rsp
	#DEBUG_VALUE: main:slice <- [DW_OP_plus_uconst 56, DW_OP_deref] $rsp
	#DEBUG_VALUE: main:offset <- [DW_OP_plus_uconst 216, DW_OP_deref] $rsp
	#DEBUG_VALUE: main:a <- [DW_OP_LLVM_fragment 64 32] 1.000000e+00
	#DEBUG_VALUE: main:s <- [DW_OP_LLVM_fragment 64 32] 1.000000e+00
	#DEBUG_VALUE: main:theoretical_write <- [DW_OP_plus_uconst 120, DW_OP_deref_size 16, DW_OP_stack_value] $rsp
	#DEBUG_VALUE: main:total_bytes_x <- [DW_OP_plus_uconst 224, DW_OP_deref_size 16, DW_OP_stack_value] $rsp
	movq	104(%rsp), %rax                 # 8-byte Reload
	leal	(,%rax,8), %eax
	imull	136(%rsp), %eax                 # 4-byte Folded Reload
	addl	144(%rsp), %eax                 # 4-byte Folded Reload
	xorps	%xmm0, %xmm0
	cvtsi2sd	%eax, %xmm0
.Ltmp476:
	#DEBUG_VALUE: main:theoretical_fetch_z <- $xmm0
	addsd	120(%rsp), %xmm0                # 8-byte Folded Reload
.Ltmp477:
	mulsd	.LCPI9_4(%rip), %xmm0
.Ltmp478:
	#DEBUG_VALUE: main:total_bytes_z <- $xmm0
	movsd	%xmm0, 88(%rsp)                 # 8-byte Spill
	.loc	5 252 29 is_stmt 1              # stencils.cpp:252:29
	movq	32(%rsp), %rdi
	.loc	5 252 38 is_stmt 0              # stencils.cpp:252:38
	movq	72(%rsp), %rsi
	.loc	5 252 14                        # stencils.cpp:252:14
	subq	$8, %rsp
.Ltmp479:
	.cfi_adjust_cfa_offset 8
	.loc	5 0 14                          # stencils.cpp:0:14
	movl	56(%rsp), %edx                  # 4-byte Reload
	movq	64(%rsp), %rcx                  # 8-byte Reload
                                        # kill: def $ecx killed $ecx killed $rcx
	.loc	5 252 14                        # stencils.cpp:252:14
	movl	$4, %r8d
	movl	%ebx, %r9d
	pushq	$-1
	.cfi_adjust_cfa_offset 8
	pushq	%r15
	.cfi_adjust_cfa_offset 8
	pushq	$4
	.cfi_adjust_cfa_offset 8
	pushq	%rbp
	.cfi_adjust_cfa_offset 8
	pushq	$4
	.cfi_adjust_cfa_offset 8
	callq	_Z14max_absval_gpuPfPKfiiiiiiiii
.Ltmp480:
	#DEBUG_VALUE: main:maxval <- $xmm0
	addq	$48, %rsp
	.cfi_adjust_cfa_offset -48
	.loc	5 253 62 is_stmt 1              # stencils.cpp:253:62
	cvtss2sd	%xmm0, %xmm0
.Ltmp481:
	.loc	5 253 5 is_stmt 0               # stencils.cpp:253:5
	movl	$.L.str.13, %edi
	movb	$1, %al
	callq	printf
.Ltmp482:
	.loc	5 0 5                           # stencils.cpp:0:5
	movss	8(%rsp), %xmm0                  # 4-byte Reload
                                        # xmm0 = mem[0],zero,zero,zero
	.loc	5 254 60 is_stmt 1              # stencils.cpp:254:60
	divss	68(%rsp), %xmm0                 # 4-byte Folded Reload
	.loc	5 254 46 is_stmt 0              # stencils.cpp:254:46
	cvtss2sd	%xmm0, %xmm0
	.loc	5 254 5                         # stencils.cpp:254:5
	movl	$.L.str.14, %edi
	movb	$1, %al
	callq	printf
.Ltmp483:
	.loc	5 0 5                           # stencils.cpp:0:5
	movsd	88(%rsp), %xmm0                 # 8-byte Reload
                                        # xmm0 = mem[0],zero
	.loc	5 255 68 is_stmt 1              # stencils.cpp:255:68
	mulsd	128(%rsp), %xmm0                # 8-byte Folded Reload
	movss	8(%rsp), %xmm1                  # 4-byte Reload
                                        # xmm1 = mem[0],zero,zero,zero
	.loc	5 255 75 is_stmt 0              # stencils.cpp:255:75
	cvtss2sd	%xmm1, %xmm1
	movsd	%xmm0, 88(%rsp)                 # 8-byte Spill
	.loc	5 255 73                        # stencils.cpp:255:73
	divsd	%xmm1, %xmm0
	.loc	5 255 89                        # stencils.cpp:255:89
	divsd	.LCPI9_5(%rip), %xmm0
	.loc	5 255 5                         # stencils.cpp:255:5
	movl	$.L.str.15, %edi
	movb	$1, %al
	callq	printf
.Ltmp484:
	.loc	5 257 5 is_stmt 1               # stencils.cpp:257:5
	movl	$.Lstr.6, %edi
	callq	puts@PLT
.Ltmp485:
	.loc	5 258 20                        # stencils.cpp:258:20
	movq	32(%rsp), %rdi
	.loc	5 258 10 is_stmt 0              # stencils.cpp:258:10
	xorl	%esi, %esi
	movq	96(%rsp), %r14                  # 8-byte Reload
	movq	%r14, %rdx
	callq	hipMemset
.Ltmp486:
	.loc	5 258 51                        # stencils.cpp:258:51
	testl	%eax, %eax
.Ltmp487:
	.loc	5 258 10                        # stencils.cpp:258:10
	jne	.LBB9_190
.Ltmp488:
# %bb.84:                               # %.preheader497
	#DEBUG_VALUE: main:argc <- [DW_OP_LLVM_entry_value 1] $edi
	#DEBUG_VALUE: main:argv <- [DW_OP_LLVM_entry_value 1] $rsi
	#DEBUG_VALUE: main:R <- 4
	#DEBUG_VALUE: main:h <- 1.000000e+00
	#DEBUG_VALUE: main:mx <- [DW_OP_plus_uconst 48, DW_OP_deref] $rsp
	#DEBUG_VALUE: main:line <- [DW_OP_plus_uconst 48, DW_OP_deref] $rsp
	#DEBUG_VALUE: main:slice <- [DW_OP_plus_uconst 56, DW_OP_deref] $rsp
	#DEBUG_VALUE: main:offset <- [DW_OP_plus_uconst 216, DW_OP_deref] $rsp
	#DEBUG_VALUE: main:a <- [DW_OP_LLVM_fragment 64 32] 1.000000e+00
	#DEBUG_VALUE: main:s <- [DW_OP_LLVM_fragment 64 32] 1.000000e+00
	#DEBUG_VALUE: main:theoretical_write <- [DW_OP_plus_uconst 120, DW_OP_deref_size 16, DW_OP_stack_value] $rsp
	#DEBUG_VALUE: main:total_bytes_x <- [DW_OP_plus_uconst 224, DW_OP_deref_size 16, DW_OP_stack_value] $rsp
	.loc	5 0 10                          # stencils.cpp:0:10
	movl	52(%rsp), %r13d                 # 4-byte Reload
	xorpd	%xmm0, %xmm0
.Ltmp489:
	.loc	5 145 23 is_stmt 1              # stencils.cpp:145:23
	testl	%r13d, %r13d
.Ltmp490:
	#DEBUG_VALUE: i <- 0
	#DEBUG_VALUE: main:total_elapsed <- 0.000000e+00
	.loc	5 260 5                         # stencils.cpp:260:5
	jle	.LBB9_92
.Ltmp491:
# %bb.85:                               # %.lr.ph583.preheader
	#DEBUG_VALUE: main:argc <- [DW_OP_LLVM_entry_value 1] $edi
	#DEBUG_VALUE: main:argv <- [DW_OP_LLVM_entry_value 1] $rsi
	#DEBUG_VALUE: main:R <- 4
	#DEBUG_VALUE: main:h <- 1.000000e+00
	#DEBUG_VALUE: main:mx <- [DW_OP_plus_uconst 48, DW_OP_deref] $rsp
	#DEBUG_VALUE: main:line <- [DW_OP_plus_uconst 48, DW_OP_deref] $rsp
	#DEBUG_VALUE: main:slice <- [DW_OP_plus_uconst 56, DW_OP_deref] $rsp
	#DEBUG_VALUE: main:offset <- [DW_OP_plus_uconst 216, DW_OP_deref] $rsp
	#DEBUG_VALUE: main:a <- [DW_OP_LLVM_fragment 64 32] 1.000000e+00
	#DEBUG_VALUE: main:s <- [DW_OP_LLVM_fragment 64 32] 1.000000e+00
	#DEBUG_VALUE: main:theoretical_write <- [DW_OP_plus_uconst 120, DW_OP_deref_size 16, DW_OP_stack_value] $rsp
	#DEBUG_VALUE: main:total_bytes_x <- [DW_OP_plus_uconst 224, DW_OP_deref_size 16, DW_OP_stack_value] $rsp
	#DEBUG_VALUE: main:total_elapsed <- 0.000000e+00
	#DEBUG_VALUE: i <- 0
	.loc	5 0 5 is_stmt 0                 # stencils.cpp:0:5
	movss	%xmm0, 8(%rsp)                  # 4-byte Spill
	leaq	160(%rsp), %r12
	leaq	28(%rsp), %r14
.Ltmp492:
	.p2align	4, 0x90
.LBB9_86:                               # %.lr.ph583
                                        # =>This Inner Loop Header: Depth=1
	#DEBUG_VALUE: main:argc <- [DW_OP_LLVM_entry_value 1] $edi
	#DEBUG_VALUE: main:argv <- [DW_OP_LLVM_entry_value 1] $rsi
	#DEBUG_VALUE: main:R <- 4
	#DEBUG_VALUE: main:h <- 1.000000e+00
	#DEBUG_VALUE: main:mx <- [DW_OP_plus_uconst 48, DW_OP_deref] $rsp
	#DEBUG_VALUE: main:line <- [DW_OP_plus_uconst 48, DW_OP_deref] $rsp
	#DEBUG_VALUE: main:slice <- [DW_OP_plus_uconst 56, DW_OP_deref] $rsp
	#DEBUG_VALUE: main:offset <- [DW_OP_plus_uconst 216, DW_OP_deref] $rsp
	#DEBUG_VALUE: main:a <- [DW_OP_LLVM_fragment 64 32] 1.000000e+00
	#DEBUG_VALUE: main:s <- [DW_OP_LLVM_fragment 64 32] 1.000000e+00
	#DEBUG_VALUE: main:theoretical_write <- [DW_OP_plus_uconst 120, DW_OP_deref_size 16, DW_OP_stack_value] $rsp
	#DEBUG_VALUE: main:total_bytes_x <- [DW_OP_plus_uconst 224, DW_OP_deref_size 16, DW_OP_stack_value] $rsp
	#DEBUG_VALUE: i <- [DW_OP_LLVM_arg 0, DW_OP_LLVM_arg 1, DW_OP_plus_uconst 52, DW_OP_deref, DW_OP_minus, DW_OP_consts 18446744073709551615, DW_OP_div, DW_OP_stack_value] $r13d, $rsp
	#DEBUG_VALUE: main:total_elapsed <- [DW_OP_plus_uconst 8, DW_OP_deref] $rsp
	.loc	5 261 14 is_stmt 1              # stencils.cpp:261:14
	callq	hipDeviceSynchronize
.Ltmp493:
	.loc	5 261 37 is_stmt 0              # stencils.cpp:261:37
	testl	%eax, %eax
.Ltmp494:
	.loc	5 261 14                        # stencils.cpp:261:14
	jne	.LBB9_145
.Ltmp495:
# %bb.87:                               #   in Loop: Header=BB9_86 Depth=1
	#DEBUG_VALUE: main:argc <- [DW_OP_LLVM_entry_value 1] $edi
	#DEBUG_VALUE: main:argv <- [DW_OP_LLVM_entry_value 1] $rsi
	#DEBUG_VALUE: main:R <- 4
	#DEBUG_VALUE: main:h <- 1.000000e+00
	#DEBUG_VALUE: main:mx <- [DW_OP_plus_uconst 48, DW_OP_deref] $rsp
	#DEBUG_VALUE: main:line <- [DW_OP_plus_uconst 48, DW_OP_deref] $rsp
	#DEBUG_VALUE: main:slice <- [DW_OP_plus_uconst 56, DW_OP_deref] $rsp
	#DEBUG_VALUE: main:offset <- [DW_OP_plus_uconst 216, DW_OP_deref] $rsp
	#DEBUG_VALUE: main:a <- [DW_OP_LLVM_fragment 64 32] 1.000000e+00
	#DEBUG_VALUE: main:s <- [DW_OP_LLVM_fragment 64 32] 1.000000e+00
	#DEBUG_VALUE: main:theoretical_write <- [DW_OP_plus_uconst 120, DW_OP_deref_size 16, DW_OP_stack_value] $rsp
	#DEBUG_VALUE: main:total_bytes_x <- [DW_OP_plus_uconst 224, DW_OP_deref_size 16, DW_OP_stack_value] $rsp
	#DEBUG_VALUE: main:total_elapsed <- [DW_OP_plus_uconst 8, DW_OP_deref] $rsp
	#DEBUG_VALUE: i <- [DW_OP_LLVM_arg 0, DW_OP_LLVM_arg 1, DW_OP_plus_uconst 52, DW_OP_deref, DW_OP_minus, DW_OP_consts 18446744073709551615, DW_OP_div, DW_OP_stack_value] $r13d, $rsp
	.loc	5 262 29 is_stmt 1              # stencils.cpp:262:29
	movq	40(%rsp), %rdi
	.loc	5 262 14 is_stmt 0              # stencils.cpp:262:14
	xorl	%esi, %esi
	callq	hipEventRecord
.Ltmp496:
	.loc	5 262 36                        # stencils.cpp:262:36
	testl	%eax, %eax
.Ltmp497:
	.loc	5 262 14                        # stencils.cpp:262:14
	jne	.LBB9_146
.Ltmp498:
# %bb.88:                               #   in Loop: Header=BB9_86 Depth=1
	#DEBUG_VALUE: main:argc <- [DW_OP_LLVM_entry_value 1] $edi
	#DEBUG_VALUE: main:argv <- [DW_OP_LLVM_entry_value 1] $rsi
	#DEBUG_VALUE: main:R <- 4
	#DEBUG_VALUE: main:h <- 1.000000e+00
	#DEBUG_VALUE: main:mx <- [DW_OP_plus_uconst 48, DW_OP_deref] $rsp
	#DEBUG_VALUE: main:line <- [DW_OP_plus_uconst 48, DW_OP_deref] $rsp
	#DEBUG_VALUE: main:slice <- [DW_OP_plus_uconst 56, DW_OP_deref] $rsp
	#DEBUG_VALUE: main:offset <- [DW_OP_plus_uconst 216, DW_OP_deref] $rsp
	#DEBUG_VALUE: main:a <- [DW_OP_LLVM_fragment 64 32] 1.000000e+00
	#DEBUG_VALUE: main:s <- [DW_OP_LLVM_fragment 64 32] 1.000000e+00
	#DEBUG_VALUE: main:theoretical_write <- [DW_OP_plus_uconst 120, DW_OP_deref_size 16, DW_OP_stack_value] $rsp
	#DEBUG_VALUE: main:total_bytes_x <- [DW_OP_plus_uconst 224, DW_OP_deref_size 16, DW_OP_stack_value] $rsp
	#DEBUG_VALUE: main:total_elapsed <- [DW_OP_plus_uconst 8, DW_OP_deref] $rsp
	#DEBUG_VALUE: i <- [DW_OP_LLVM_arg 0, DW_OP_LLVM_arg 1, DW_OP_plus_uconst 52, DW_OP_deref, DW_OP_minus, DW_OP_consts 18446744073709551615, DW_OP_div, DW_OP_stack_value] $r13d, $rsp
	.loc	5 263 32 is_stmt 1              # stencils.cpp:263:32
	movq	32(%rsp), %rdi
	.loc	5 263 41 is_stmt 0              # stencils.cpp:263:41
	movq	80(%rsp), %rsi
	.loc	5 263 9                         # stencils.cpp:263:9
	movq	%r12, %rdx
	movl	48(%rsp), %ecx                  # 4-byte Reload
	movq	56(%rsp), %r8                   # 8-byte Reload
                                        # kill: def $r8d killed $r8d killed $r8
	movl	$4, %r9d
	pushq	112(%rsp)                       # 8-byte Folded Reload
.Ltmp499:
	.cfi_adjust_cfa_offset 8
	pushq	%r15
	.cfi_adjust_cfa_offset 8
	pushq	$4
	.cfi_adjust_cfa_offset 8
	pushq	%rbp
	.cfi_adjust_cfa_offset 8
	pushq	$4
	.cfi_adjust_cfa_offset 8
	pushq	%rbx
	.cfi_adjust_cfa_offset 8
	callq	_Z19compute_fd_z_windowILi4EEvPfPKfS2_iiiiiiiii
.Ltmp500:
	addq	$48, %rsp
	.cfi_adjust_cfa_offset -48
.Ltmp501:
	.loc	5 264 29 is_stmt 1              # stencils.cpp:264:29
	movq	16(%rsp), %rdi
	.loc	5 264 14 is_stmt 0              # stencils.cpp:264:14
	xorl	%esi, %esi
	callq	hipEventRecord
.Ltmp502:
	.loc	5 264 35                        # stencils.cpp:264:35
	testl	%eax, %eax
.Ltmp503:
	.loc	5 264 14                        # stencils.cpp:264:14
	jne	.LBB9_147
.Ltmp504:
# %bb.89:                               #   in Loop: Header=BB9_86 Depth=1
	#DEBUG_VALUE: main:argc <- [DW_OP_LLVM_entry_value 1] $edi
	#DEBUG_VALUE: main:argv <- [DW_OP_LLVM_entry_value 1] $rsi
	#DEBUG_VALUE: main:R <- 4
	#DEBUG_VALUE: main:h <- 1.000000e+00
	#DEBUG_VALUE: main:mx <- [DW_OP_plus_uconst 48, DW_OP_deref] $rsp
	#DEBUG_VALUE: main:line <- [DW_OP_plus_uconst 48, DW_OP_deref] $rsp
	#DEBUG_VALUE: main:slice <- [DW_OP_plus_uconst 56, DW_OP_deref] $rsp
	#DEBUG_VALUE: main:offset <- [DW_OP_plus_uconst 216, DW_OP_deref] $rsp
	#DEBUG_VALUE: main:a <- [DW_OP_LLVM_fragment 64 32] 1.000000e+00
	#DEBUG_VALUE: main:s <- [DW_OP_LLVM_fragment 64 32] 1.000000e+00
	#DEBUG_VALUE: main:theoretical_write <- [DW_OP_plus_uconst 120, DW_OP_deref_size 16, DW_OP_stack_value] $rsp
	#DEBUG_VALUE: main:total_bytes_x <- [DW_OP_plus_uconst 224, DW_OP_deref_size 16, DW_OP_stack_value] $rsp
	#DEBUG_VALUE: main:total_elapsed <- [DW_OP_plus_uconst 8, DW_OP_deref] $rsp
	#DEBUG_VALUE: i <- [DW_OP_LLVM_arg 0, DW_OP_LLVM_arg 1, DW_OP_plus_uconst 52, DW_OP_deref, DW_OP_minus, DW_OP_consts 18446744073709551615, DW_OP_div, DW_OP_stack_value] $r13d, $rsp
	.loc	5 265 34 is_stmt 1              # stencils.cpp:265:34
	movq	16(%rsp), %rdi
	.loc	5 265 14 is_stmt 0              # stencils.cpp:265:14
	callq	hipEventSynchronize
.Ltmp505:
	.loc	5 265 40                        # stencils.cpp:265:40
	testl	%eax, %eax
.Ltmp506:
	.loc	5 265 14                        # stencils.cpp:265:14
	jne	.LBB9_148
.Ltmp507:
# %bb.90:                               #   in Loop: Header=BB9_86 Depth=1
	#DEBUG_VALUE: main:argc <- [DW_OP_LLVM_entry_value 1] $edi
	#DEBUG_VALUE: main:argv <- [DW_OP_LLVM_entry_value 1] $rsi
	#DEBUG_VALUE: main:R <- 4
	#DEBUG_VALUE: main:h <- 1.000000e+00
	#DEBUG_VALUE: main:mx <- [DW_OP_plus_uconst 48, DW_OP_deref] $rsp
	#DEBUG_VALUE: main:line <- [DW_OP_plus_uconst 48, DW_OP_deref] $rsp
	#DEBUG_VALUE: main:slice <- [DW_OP_plus_uconst 56, DW_OP_deref] $rsp
	#DEBUG_VALUE: main:offset <- [DW_OP_plus_uconst 216, DW_OP_deref] $rsp
	#DEBUG_VALUE: main:a <- [DW_OP_LLVM_fragment 64 32] 1.000000e+00
	#DEBUG_VALUE: main:s <- [DW_OP_LLVM_fragment 64 32] 1.000000e+00
	#DEBUG_VALUE: main:theoretical_write <- [DW_OP_plus_uconst 120, DW_OP_deref_size 16, DW_OP_stack_value] $rsp
	#DEBUG_VALUE: main:total_bytes_x <- [DW_OP_plus_uconst 224, DW_OP_deref_size 16, DW_OP_stack_value] $rsp
	#DEBUG_VALUE: main:total_elapsed <- [DW_OP_plus_uconst 8, DW_OP_deref] $rsp
	#DEBUG_VALUE: i <- [DW_OP_LLVM_arg 0, DW_OP_LLVM_arg 1, DW_OP_plus_uconst 52, DW_OP_deref, DW_OP_minus, DW_OP_consts 18446744073709551615, DW_OP_div, DW_OP_stack_value] $r13d, $rsp
	.loc	5 266 44 is_stmt 1              # stencils.cpp:266:44
	movq	40(%rsp), %rsi
	.loc	5 266 51 is_stmt 0              # stencils.cpp:266:51
	movq	16(%rsp), %rdx
	.loc	5 266 14                        # stencils.cpp:266:14
	movq	%r14, %rdi
	callq	hipEventElapsedTime
.Ltmp508:
	.loc	5 266 57                        # stencils.cpp:266:57
	testl	%eax, %eax
.Ltmp509:
	.loc	5 266 14                        # stencils.cpp:266:14
	jne	.LBB9_149
.Ltmp510:
# %bb.91:                               #   in Loop: Header=BB9_86 Depth=1
	#DEBUG_VALUE: main:argc <- [DW_OP_LLVM_entry_value 1] $edi
	#DEBUG_VALUE: main:argv <- [DW_OP_LLVM_entry_value 1] $rsi
	#DEBUG_VALUE: main:R <- 4
	#DEBUG_VALUE: main:h <- 1.000000e+00
	#DEBUG_VALUE: main:mx <- [DW_OP_plus_uconst 48, DW_OP_deref] $rsp
	#DEBUG_VALUE: main:line <- [DW_OP_plus_uconst 48, DW_OP_deref] $rsp
	#DEBUG_VALUE: main:slice <- [DW_OP_plus_uconst 56, DW_OP_deref] $rsp
	#DEBUG_VALUE: main:offset <- [DW_OP_plus_uconst 216, DW_OP_deref] $rsp
	#DEBUG_VALUE: main:a <- [DW_OP_LLVM_fragment 64 32] 1.000000e+00
	#DEBUG_VALUE: main:s <- [DW_OP_LLVM_fragment 64 32] 1.000000e+00
	#DEBUG_VALUE: main:theoretical_write <- [DW_OP_plus_uconst 120, DW_OP_deref_size 16, DW_OP_stack_value] $rsp
	#DEBUG_VALUE: main:total_bytes_x <- [DW_OP_plus_uconst 224, DW_OP_deref_size 16, DW_OP_stack_value] $rsp
	#DEBUG_VALUE: main:total_elapsed <- [DW_OP_plus_uconst 8, DW_OP_deref] $rsp
	#DEBUG_VALUE: i <- [DW_OP_LLVM_arg 0, DW_OP_LLVM_arg 1, DW_OP_plus_uconst 52, DW_OP_deref, DW_OP_minus, DW_OP_consts 18446744073709551615, DW_OP_div, DW_OP_stack_value] $r13d, $rsp
	.loc	5 0 14                          # stencils.cpp:0:14
	movss	8(%rsp), %xmm0                  # 4-byte Reload
                                        # xmm0 = mem[0],zero,zero,zero
	.loc	5 267 23 is_stmt 1              # stencils.cpp:267:23
	addss	28(%rsp), %xmm0
.Ltmp511:
	#DEBUG_VALUE: main:total_elapsed <- $xmm0
	#DEBUG_VALUE: i <- [DW_OP_LLVM_arg 0, DW_OP_LLVM_arg 1, DW_OP_plus_uconst 52, DW_OP_deref, DW_OP_minus, DW_OP_consts 18446744073709551615, DW_OP_div, DW_OP_consts 1, DW_OP_plus, DW_OP_stack_value] $r13d, $rsp
	.loc	5 0 23 is_stmt 0                # stencils.cpp:0:23
	movss	%xmm0, 8(%rsp)                  # 4-byte Spill
.Ltmp512:
	#DEBUG_VALUE: main:total_elapsed <- [DW_OP_plus_uconst 8, DW_OP_deref_size 16, DW_OP_stack_value] $rsp
	.loc	5 260 23 is_stmt 1              # stencils.cpp:260:23
	decl	%r13d
.Ltmp513:
	.loc	5 260 5 is_stmt 0               # stencils.cpp:260:5
	jne	.LBB9_86
	jmp	.LBB9_93
.Ltmp514:
.LBB9_92:
	#DEBUG_VALUE: main:argc <- [DW_OP_LLVM_entry_value 1] $edi
	#DEBUG_VALUE: main:argv <- [DW_OP_LLVM_entry_value 1] $rsi
	#DEBUG_VALUE: main:R <- 4
	#DEBUG_VALUE: main:h <- 1.000000e+00
	#DEBUG_VALUE: main:mx <- [DW_OP_plus_uconst 48, DW_OP_deref] $rsp
	#DEBUG_VALUE: main:line <- [DW_OP_plus_uconst 48, DW_OP_deref] $rsp
	#DEBUG_VALUE: main:slice <- [DW_OP_plus_uconst 56, DW_OP_deref] $rsp
	#DEBUG_VALUE: main:offset <- [DW_OP_plus_uconst 216, DW_OP_deref] $rsp
	#DEBUG_VALUE: main:a <- [DW_OP_LLVM_fragment 64 32] 1.000000e+00
	#DEBUG_VALUE: main:s <- [DW_OP_LLVM_fragment 64 32] 1.000000e+00
	#DEBUG_VALUE: main:theoretical_write <- [DW_OP_plus_uconst 120, DW_OP_deref_size 16, DW_OP_stack_value] $rsp
	#DEBUG_VALUE: main:total_bytes_x <- [DW_OP_plus_uconst 224, DW_OP_deref_size 16, DW_OP_stack_value] $rsp
	#DEBUG_VALUE: main:total_elapsed <- 0.000000e+00
	#DEBUG_VALUE: i <- 0
	.loc	5 0 5                           # stencils.cpp:0:5
	movss	%xmm0, 8(%rsp)                  # 4-byte Spill
.Ltmp515:
.LBB9_93:                               # %._crit_edge584
	#DEBUG_VALUE: main:argc <- [DW_OP_LLVM_entry_value 1] $edi
	#DEBUG_VALUE: main:argv <- [DW_OP_LLVM_entry_value 1] $rsi
	#DEBUG_VALUE: main:R <- 4
	#DEBUG_VALUE: main:h <- 1.000000e+00
	#DEBUG_VALUE: main:mx <- [DW_OP_plus_uconst 48, DW_OP_deref] $rsp
	#DEBUG_VALUE: main:line <- [DW_OP_plus_uconst 48, DW_OP_deref] $rsp
	#DEBUG_VALUE: main:slice <- [DW_OP_plus_uconst 56, DW_OP_deref] $rsp
	#DEBUG_VALUE: main:offset <- [DW_OP_plus_uconst 216, DW_OP_deref] $rsp
	#DEBUG_VALUE: main:a <- [DW_OP_LLVM_fragment 64 32] 1.000000e+00
	#DEBUG_VALUE: main:s <- [DW_OP_LLVM_fragment 64 32] 1.000000e+00
	#DEBUG_VALUE: main:theoretical_write <- [DW_OP_plus_uconst 120, DW_OP_deref_size 16, DW_OP_stack_value] $rsp
	#DEBUG_VALUE: main:total_bytes_x <- [DW_OP_plus_uconst 224, DW_OP_deref_size 16, DW_OP_stack_value] $rsp
	.loc	5 269 29 is_stmt 1              # stencils.cpp:269:29
	movq	32(%rsp), %rdi
	.loc	5 269 38 is_stmt 0              # stencils.cpp:269:38
	movq	72(%rsp), %rsi
	.loc	5 269 14                        # stencils.cpp:269:14
	subq	$8, %rsp
.Ltmp516:
	.cfi_adjust_cfa_offset 8
	.loc	5 0 14                          # stencils.cpp:0:14
	movl	56(%rsp), %edx                  # 4-byte Reload
	movq	64(%rsp), %rcx                  # 8-byte Reload
                                        # kill: def $ecx killed $ecx killed $rcx
	.loc	5 269 14                        # stencils.cpp:269:14
	movl	$4, %r8d
	movl	%ebx, %r9d
	pushq	$-1
	.cfi_adjust_cfa_offset 8
	pushq	%r15
	.cfi_adjust_cfa_offset 8
	pushq	$4
	.cfi_adjust_cfa_offset 8
	pushq	%rbp
	.cfi_adjust_cfa_offset 8
	pushq	$4
	.cfi_adjust_cfa_offset 8
	callq	_Z14max_absval_gpuPfPKfiiiiiiiii
.Ltmp517:
	#DEBUG_VALUE: main:maxval <- $xmm0
	addq	$48, %rsp
	.cfi_adjust_cfa_offset -48
	.loc	5 270 62 is_stmt 1              # stencils.cpp:270:62
	cvtss2sd	%xmm0, %xmm0
.Ltmp518:
	.loc	5 270 5 is_stmt 0               # stencils.cpp:270:5
	movl	$.L.str.13, %edi
	movb	$1, %al
	callq	printf
.Ltmp519:
	.loc	5 0 5                           # stencils.cpp:0:5
	movss	8(%rsp), %xmm0                  # 4-byte Reload
                                        # xmm0 = mem[0],zero,zero,zero
	.loc	5 271 60 is_stmt 1              # stencils.cpp:271:60
	divss	68(%rsp), %xmm0                 # 4-byte Folded Reload
	.loc	5 271 46 is_stmt 0              # stencils.cpp:271:46
	cvtss2sd	%xmm0, %xmm0
	.loc	5 271 5                         # stencils.cpp:271:5
	movl	$.L.str.14, %edi
	movb	$1, %al
	callq	printf
.Ltmp520:
	.loc	5 0 5                           # stencils.cpp:0:5
	movss	8(%rsp), %xmm0                  # 4-byte Reload
                                        # xmm0 = mem[0],zero,zero,zero
	.loc	5 272 75 is_stmt 1              # stencils.cpp:272:75
	xorps	%xmm1, %xmm1
	cvtss2sd	%xmm0, %xmm1
	movsd	88(%rsp), %xmm0                 # 8-byte Reload
                                        # xmm0 = mem[0],zero
	.loc	5 272 73 is_stmt 0              # stencils.cpp:272:73
	divsd	%xmm1, %xmm0
	.loc	5 272 89                        # stencils.cpp:272:89
	divsd	.LCPI9_5(%rip), %xmm0
	.loc	5 272 5                         # stencils.cpp:272:5
	movl	$.L.str.15, %edi
	movb	$1, %al
	callq	printf
.Ltmp521:
	.loc	5 276 5 is_stmt 1               # stencils.cpp:276:5
	movl	$.Lstr.7, %edi
	callq	puts@PLT
.Ltmp522:
	.loc	5 0 5 is_stmt 0                 # stencils.cpp:0:5
	movq	104(%rsp), %r14                 # 8-byte Reload
.Ltmp523:
	.loc	5 161 9 is_stmt 1               # stencils.cpp:161:9
	testb	$3, %r14b
.Ltmp524:
	.loc	5 277 9                         # stencils.cpp:277:9
	je	.LBB9_95
.Ltmp525:
# %bb.94:                               # %.thread488
	#DEBUG_VALUE: main:argc <- [DW_OP_LLVM_entry_value 1] $edi
	#DEBUG_VALUE: main:argv <- [DW_OP_LLVM_entry_value 1] $rsi
	#DEBUG_VALUE: main:R <- 4
	#DEBUG_VALUE: main:h <- 1.000000e+00
	#DEBUG_VALUE: main:mx <- [DW_OP_plus_uconst 48, DW_OP_deref] $rsp
	#DEBUG_VALUE: main:line <- [DW_OP_plus_uconst 48, DW_OP_deref] $rsp
	#DEBUG_VALUE: main:slice <- [DW_OP_plus_uconst 56, DW_OP_deref] $rsp
	#DEBUG_VALUE: main:offset <- [DW_OP_plus_uconst 216, DW_OP_deref] $rsp
	#DEBUG_VALUE: main:a <- [DW_OP_LLVM_fragment 64 32] 1.000000e+00
	#DEBUG_VALUE: main:s <- [DW_OP_LLVM_fragment 64 32] 1.000000e+00
	#DEBUG_VALUE: main:theoretical_write <- [DW_OP_plus_uconst 120, DW_OP_deref_size 16, DW_OP_stack_value] $rsp
	#DEBUG_VALUE: main:total_bytes_x <- [DW_OP_plus_uconst 224, DW_OP_deref_size 16, DW_OP_stack_value] $rsp
	.loc	5 277 26 is_stmt 0              # stencils.cpp:277:26
	movl	$.L.str.17, %edi
	movl	%r14d, %esi
	movl	$4, %edx
	xorl	%eax, %eax
	callq	printf
.Ltmp526:
	.loc	5 297 5 is_stmt 1               # stencils.cpp:297:5
	movl	$.Lstr.8, %edi
	callq	puts@PLT
.Ltmp527:
	.loc	5 298 26                        # stencils.cpp:298:26
	movl	$.L.str.17, %edi
	movl	%r14d, %esi
	movl	$4, %edx
	xorl	%eax, %eax
	callq	printf
.Ltmp528:
	.loc	5 318 5                         # stencils.cpp:318:5
	movl	$.Lstr.9, %edi
	callq	puts@PLT
.Ltmp529:
	.loc	5 319 26                        # stencils.cpp:319:26
	movl	$.L.str.17, %edi
	movl	%r14d, %esi
	movl	$4, %edx
	xorl	%eax, %eax
	callq	printf
.Ltmp530:
	.loc	5 0 26 is_stmt 0                # stencils.cpp:0:26
	jmp	.LBB9_126
.Ltmp531:
.LBB9_95:
	#DEBUG_VALUE: main:argc <- [DW_OP_LLVM_entry_value 1] $edi
	#DEBUG_VALUE: main:argv <- [DW_OP_LLVM_entry_value 1] $rsi
	#DEBUG_VALUE: main:R <- 4
	#DEBUG_VALUE: main:h <- 1.000000e+00
	#DEBUG_VALUE: main:mx <- [DW_OP_plus_uconst 48, DW_OP_deref] $rsp
	#DEBUG_VALUE: main:line <- [DW_OP_plus_uconst 48, DW_OP_deref] $rsp
	#DEBUG_VALUE: main:slice <- [DW_OP_plus_uconst 56, DW_OP_deref] $rsp
	#DEBUG_VALUE: main:offset <- [DW_OP_plus_uconst 216, DW_OP_deref] $rsp
	#DEBUG_VALUE: main:a <- [DW_OP_LLVM_fragment 64 32] 1.000000e+00
	#DEBUG_VALUE: main:s <- [DW_OP_LLVM_fragment 64 32] 1.000000e+00
	#DEBUG_VALUE: main:theoretical_write <- [DW_OP_plus_uconst 120, DW_OP_deref_size 16, DW_OP_stack_value] $rsp
	#DEBUG_VALUE: main:total_bytes_x <- [DW_OP_plus_uconst 224, DW_OP_deref_size 16, DW_OP_stack_value] $rsp
	.loc	5 279 20 is_stmt 1              # stencils.cpp:279:20
	movq	32(%rsp), %rdi
	.loc	5 279 10 is_stmt 0              # stencils.cpp:279:10
	xorl	%esi, %esi
	movq	96(%rsp), %r14                  # 8-byte Reload
	movq	%r14, %rdx
	callq	hipMemset
.Ltmp532:
	.loc	5 279 51                        # stencils.cpp:279:51
	testl	%eax, %eax
.Ltmp533:
	.loc	5 279 10                        # stencils.cpp:279:10
	jne	.LBB9_194
.Ltmp534:
# %bb.96:                               # %.preheader496
	#DEBUG_VALUE: main:argc <- [DW_OP_LLVM_entry_value 1] $edi
	#DEBUG_VALUE: main:argv <- [DW_OP_LLVM_entry_value 1] $rsi
	#DEBUG_VALUE: main:R <- 4
	#DEBUG_VALUE: main:h <- 1.000000e+00
	#DEBUG_VALUE: main:mx <- [DW_OP_plus_uconst 48, DW_OP_deref] $rsp
	#DEBUG_VALUE: main:line <- [DW_OP_plus_uconst 48, DW_OP_deref] $rsp
	#DEBUG_VALUE: main:slice <- [DW_OP_plus_uconst 56, DW_OP_deref] $rsp
	#DEBUG_VALUE: main:offset <- [DW_OP_plus_uconst 216, DW_OP_deref] $rsp
	#DEBUG_VALUE: main:a <- [DW_OP_LLVM_fragment 64 32] 1.000000e+00
	#DEBUG_VALUE: main:s <- [DW_OP_LLVM_fragment 64 32] 1.000000e+00
	#DEBUG_VALUE: main:theoretical_write <- [DW_OP_plus_uconst 120, DW_OP_deref_size 16, DW_OP_stack_value] $rsp
	#DEBUG_VALUE: main:total_bytes_x <- [DW_OP_plus_uconst 224, DW_OP_deref_size 16, DW_OP_stack_value] $rsp
	.loc	5 0 10                          # stencils.cpp:0:10
	movl	52(%rsp), %r13d                 # 4-byte Reload
	xorpd	%xmm0, %xmm0
.Ltmp535:
	.loc	5 145 23 is_stmt 1              # stencils.cpp:145:23
	testl	%r13d, %r13d
.Ltmp536:
	#DEBUG_VALUE: i <- 0
	#DEBUG_VALUE: main:total_elapsed <- 0.000000e+00
	.loc	5 281 5                         # stencils.cpp:281:5
	jle	.LBB9_104
.Ltmp537:
# %bb.97:                               # %.lr.ph588.preheader
	#DEBUG_VALUE: main:argc <- [DW_OP_LLVM_entry_value 1] $edi
	#DEBUG_VALUE: main:argv <- [DW_OP_LLVM_entry_value 1] $rsi
	#DEBUG_VALUE: main:R <- 4
	#DEBUG_VALUE: main:h <- 1.000000e+00
	#DEBUG_VALUE: main:mx <- [DW_OP_plus_uconst 48, DW_OP_deref] $rsp
	#DEBUG_VALUE: main:line <- [DW_OP_plus_uconst 48, DW_OP_deref] $rsp
	#DEBUG_VALUE: main:slice <- [DW_OP_plus_uconst 56, DW_OP_deref] $rsp
	#DEBUG_VALUE: main:offset <- [DW_OP_plus_uconst 216, DW_OP_deref] $rsp
	#DEBUG_VALUE: main:a <- [DW_OP_LLVM_fragment 64 32] 1.000000e+00
	#DEBUG_VALUE: main:s <- [DW_OP_LLVM_fragment 64 32] 1.000000e+00
	#DEBUG_VALUE: main:theoretical_write <- [DW_OP_plus_uconst 120, DW_OP_deref_size 16, DW_OP_stack_value] $rsp
	#DEBUG_VALUE: main:total_bytes_x <- [DW_OP_plus_uconst 224, DW_OP_deref_size 16, DW_OP_stack_value] $rsp
	#DEBUG_VALUE: main:total_elapsed <- 0.000000e+00
	#DEBUG_VALUE: i <- 0
	.loc	5 0 5 is_stmt 0                 # stencils.cpp:0:5
	movss	%xmm0, 8(%rsp)                  # 4-byte Spill
	leaq	160(%rsp), %r12
	leaq	28(%rsp), %r14
.Ltmp538:
	.p2align	4, 0x90
.LBB9_98:                               # %.lr.ph588
                                        # =>This Inner Loop Header: Depth=1
	#DEBUG_VALUE: main:argc <- [DW_OP_LLVM_entry_value 1] $edi
	#DEBUG_VALUE: main:argv <- [DW_OP_LLVM_entry_value 1] $rsi
	#DEBUG_VALUE: main:R <- 4
	#DEBUG_VALUE: main:h <- 1.000000e+00
	#DEBUG_VALUE: main:mx <- [DW_OP_plus_uconst 48, DW_OP_deref] $rsp
	#DEBUG_VALUE: main:line <- [DW_OP_plus_uconst 48, DW_OP_deref] $rsp
	#DEBUG_VALUE: main:slice <- [DW_OP_plus_uconst 56, DW_OP_deref] $rsp
	#DEBUG_VALUE: main:offset <- [DW_OP_plus_uconst 216, DW_OP_deref] $rsp
	#DEBUG_VALUE: main:a <- [DW_OP_LLVM_fragment 64 32] 1.000000e+00
	#DEBUG_VALUE: main:s <- [DW_OP_LLVM_fragment 64 32] 1.000000e+00
	#DEBUG_VALUE: main:theoretical_write <- [DW_OP_plus_uconst 120, DW_OP_deref_size 16, DW_OP_stack_value] $rsp
	#DEBUG_VALUE: main:total_bytes_x <- [DW_OP_plus_uconst 224, DW_OP_deref_size 16, DW_OP_stack_value] $rsp
	#DEBUG_VALUE: i <- [DW_OP_LLVM_arg 0, DW_OP_LLVM_arg 1, DW_OP_plus_uconst 52, DW_OP_deref, DW_OP_minus, DW_OP_consts 18446744073709551615, DW_OP_div, DW_OP_stack_value] $r13d, $rsp
	#DEBUG_VALUE: main:total_elapsed <- [DW_OP_plus_uconst 8, DW_OP_deref] $rsp
	.loc	5 282 14 is_stmt 1              # stencils.cpp:282:14
	callq	hipDeviceSynchronize
.Ltmp539:
	.loc	5 282 37 is_stmt 0              # stencils.cpp:282:37
	testl	%eax, %eax
.Ltmp540:
	.loc	5 282 14                        # stencils.cpp:282:14
	jne	.LBB9_165
.Ltmp541:
# %bb.99:                               #   in Loop: Header=BB9_98 Depth=1
	#DEBUG_VALUE: main:argc <- [DW_OP_LLVM_entry_value 1] $edi
	#DEBUG_VALUE: main:argv <- [DW_OP_LLVM_entry_value 1] $rsi
	#DEBUG_VALUE: main:R <- 4
	#DEBUG_VALUE: main:h <- 1.000000e+00
	#DEBUG_VALUE: main:mx <- [DW_OP_plus_uconst 48, DW_OP_deref] $rsp
	#DEBUG_VALUE: main:line <- [DW_OP_plus_uconst 48, DW_OP_deref] $rsp
	#DEBUG_VALUE: main:slice <- [DW_OP_plus_uconst 56, DW_OP_deref] $rsp
	#DEBUG_VALUE: main:offset <- [DW_OP_plus_uconst 216, DW_OP_deref] $rsp
	#DEBUG_VALUE: main:a <- [DW_OP_LLVM_fragment 64 32] 1.000000e+00
	#DEBUG_VALUE: main:s <- [DW_OP_LLVM_fragment 64 32] 1.000000e+00
	#DEBUG_VALUE: main:theoretical_write <- [DW_OP_plus_uconst 120, DW_OP_deref_size 16, DW_OP_stack_value] $rsp
	#DEBUG_VALUE: main:total_bytes_x <- [DW_OP_plus_uconst 224, DW_OP_deref_size 16, DW_OP_stack_value] $rsp
	#DEBUG_VALUE: main:total_elapsed <- [DW_OP_plus_uconst 8, DW_OP_deref] $rsp
	#DEBUG_VALUE: i <- [DW_OP_LLVM_arg 0, DW_OP_LLVM_arg 1, DW_OP_plus_uconst 52, DW_OP_deref, DW_OP_minus, DW_OP_consts 18446744073709551615, DW_OP_div, DW_OP_stack_value] $r13d, $rsp
	.loc	5 283 29 is_stmt 1              # stencils.cpp:283:29
	movq	40(%rsp), %rdi
	.loc	5 283 14 is_stmt 0              # stencils.cpp:283:14
	xorl	%esi, %esi
	callq	hipEventRecord
.Ltmp542:
	.loc	5 283 36                        # stencils.cpp:283:36
	testl	%eax, %eax
.Ltmp543:
	.loc	5 283 14                        # stencils.cpp:283:14
	jne	.LBB9_166
.Ltmp544:
# %bb.100:                              #   in Loop: Header=BB9_98 Depth=1
	#DEBUG_VALUE: main:argc <- [DW_OP_LLVM_entry_value 1] $edi
	#DEBUG_VALUE: main:argv <- [DW_OP_LLVM_entry_value 1] $rsi
	#DEBUG_VALUE: main:R <- 4
	#DEBUG_VALUE: main:h <- 1.000000e+00
	#DEBUG_VALUE: main:mx <- [DW_OP_plus_uconst 48, DW_OP_deref] $rsp
	#DEBUG_VALUE: main:line <- [DW_OP_plus_uconst 48, DW_OP_deref] $rsp
	#DEBUG_VALUE: main:slice <- [DW_OP_plus_uconst 56, DW_OP_deref] $rsp
	#DEBUG_VALUE: main:offset <- [DW_OP_plus_uconst 216, DW_OP_deref] $rsp
	#DEBUG_VALUE: main:a <- [DW_OP_LLVM_fragment 64 32] 1.000000e+00
	#DEBUG_VALUE: main:s <- [DW_OP_LLVM_fragment 64 32] 1.000000e+00
	#DEBUG_VALUE: main:theoretical_write <- [DW_OP_plus_uconst 120, DW_OP_deref_size 16, DW_OP_stack_value] $rsp
	#DEBUG_VALUE: main:total_bytes_x <- [DW_OP_plus_uconst 224, DW_OP_deref_size 16, DW_OP_stack_value] $rsp
	#DEBUG_VALUE: main:total_elapsed <- [DW_OP_plus_uconst 8, DW_OP_deref] $rsp
	#DEBUG_VALUE: i <- [DW_OP_LLVM_arg 0, DW_OP_LLVM_arg 1, DW_OP_plus_uconst 52, DW_OP_deref, DW_OP_minus, DW_OP_consts 18446744073709551615, DW_OP_div, DW_OP_stack_value] $r13d, $rsp
	.loc	5 284 36 is_stmt 1              # stencils.cpp:284:36
	movq	32(%rsp), %rdi
	.loc	5 284 45 is_stmt 0              # stencils.cpp:284:45
	movq	80(%rsp), %rsi
	.loc	5 284 9                         # stencils.cpp:284:9
	movq	%r12, %rdx
	movl	48(%rsp), %ecx                  # 4-byte Reload
	movq	56(%rsp), %r8                   # 8-byte Reload
                                        # kill: def $r8d killed $r8d killed $r8
	movl	$4, %r9d
	pushq	112(%rsp)                       # 8-byte Folded Reload
.Ltmp545:
	.cfi_adjust_cfa_offset 8
	pushq	%r15
	.cfi_adjust_cfa_offset 8
	pushq	$4
	.cfi_adjust_cfa_offset 8
	pushq	%rbp
	.cfi_adjust_cfa_offset 8
	pushq	$4
	.cfi_adjust_cfa_offset 8
	pushq	%rbx
	.cfi_adjust_cfa_offset 8
	callq	_Z23compute_fd_z_window_vecILi4EEvPfPKfS2_iiiiiiiii
.Ltmp546:
	addq	$48, %rsp
	.cfi_adjust_cfa_offset -48
.Ltmp547:
	.loc	5 285 29 is_stmt 1              # stencils.cpp:285:29
	movq	16(%rsp), %rdi
	.loc	5 285 14 is_stmt 0              # stencils.cpp:285:14
	xorl	%esi, %esi
	callq	hipEventRecord
.Ltmp548:
	.loc	5 285 35                        # stencils.cpp:285:35
	testl	%eax, %eax
.Ltmp549:
	.loc	5 285 14                        # stencils.cpp:285:14
	jne	.LBB9_167
.Ltmp550:
# %bb.101:                              #   in Loop: Header=BB9_98 Depth=1
	#DEBUG_VALUE: main:argc <- [DW_OP_LLVM_entry_value 1] $edi
	#DEBUG_VALUE: main:argv <- [DW_OP_LLVM_entry_value 1] $rsi
	#DEBUG_VALUE: main:R <- 4
	#DEBUG_VALUE: main:h <- 1.000000e+00
	#DEBUG_VALUE: main:mx <- [DW_OP_plus_uconst 48, DW_OP_deref] $rsp
	#DEBUG_VALUE: main:line <- [DW_OP_plus_uconst 48, DW_OP_deref] $rsp
	#DEBUG_VALUE: main:slice <- [DW_OP_plus_uconst 56, DW_OP_deref] $rsp
	#DEBUG_VALUE: main:offset <- [DW_OP_plus_uconst 216, DW_OP_deref] $rsp
	#DEBUG_VALUE: main:a <- [DW_OP_LLVM_fragment 64 32] 1.000000e+00
	#DEBUG_VALUE: main:s <- [DW_OP_LLVM_fragment 64 32] 1.000000e+00
	#DEBUG_VALUE: main:theoretical_write <- [DW_OP_plus_uconst 120, DW_OP_deref_size 16, DW_OP_stack_value] $rsp
	#DEBUG_VALUE: main:total_bytes_x <- [DW_OP_plus_uconst 224, DW_OP_deref_size 16, DW_OP_stack_value] $rsp
	#DEBUG_VALUE: main:total_elapsed <- [DW_OP_plus_uconst 8, DW_OP_deref] $rsp
	#DEBUG_VALUE: i <- [DW_OP_LLVM_arg 0, DW_OP_LLVM_arg 1, DW_OP_plus_uconst 52, DW_OP_deref, DW_OP_minus, DW_OP_consts 18446744073709551615, DW_OP_div, DW_OP_stack_value] $r13d, $rsp
	.loc	5 286 34 is_stmt 1              # stencils.cpp:286:34
	movq	16(%rsp), %rdi
	.loc	5 286 14 is_stmt 0              # stencils.cpp:286:14
	callq	hipEventSynchronize
.Ltmp551:
	.loc	5 286 40                        # stencils.cpp:286:40
	testl	%eax, %eax
.Ltmp552:
	.loc	5 286 14                        # stencils.cpp:286:14
	jne	.LBB9_168
.Ltmp553:
# %bb.102:                              #   in Loop: Header=BB9_98 Depth=1
	#DEBUG_VALUE: main:argc <- [DW_OP_LLVM_entry_value 1] $edi
	#DEBUG_VALUE: main:argv <- [DW_OP_LLVM_entry_value 1] $rsi
	#DEBUG_VALUE: main:R <- 4
	#DEBUG_VALUE: main:h <- 1.000000e+00
	#DEBUG_VALUE: main:mx <- [DW_OP_plus_uconst 48, DW_OP_deref] $rsp
	#DEBUG_VALUE: main:line <- [DW_OP_plus_uconst 48, DW_OP_deref] $rsp
	#DEBUG_VALUE: main:slice <- [DW_OP_plus_uconst 56, DW_OP_deref] $rsp
	#DEBUG_VALUE: main:offset <- [DW_OP_plus_uconst 216, DW_OP_deref] $rsp
	#DEBUG_VALUE: main:a <- [DW_OP_LLVM_fragment 64 32] 1.000000e+00
	#DEBUG_VALUE: main:s <- [DW_OP_LLVM_fragment 64 32] 1.000000e+00
	#DEBUG_VALUE: main:theoretical_write <- [DW_OP_plus_uconst 120, DW_OP_deref_size 16, DW_OP_stack_value] $rsp
	#DEBUG_VALUE: main:total_bytes_x <- [DW_OP_plus_uconst 224, DW_OP_deref_size 16, DW_OP_stack_value] $rsp
	#DEBUG_VALUE: main:total_elapsed <- [DW_OP_plus_uconst 8, DW_OP_deref] $rsp
	#DEBUG_VALUE: i <- [DW_OP_LLVM_arg 0, DW_OP_LLVM_arg 1, DW_OP_plus_uconst 52, DW_OP_deref, DW_OP_minus, DW_OP_consts 18446744073709551615, DW_OP_div, DW_OP_stack_value] $r13d, $rsp
	.loc	5 287 44 is_stmt 1              # stencils.cpp:287:44
	movq	40(%rsp), %rsi
	.loc	5 287 51 is_stmt 0              # stencils.cpp:287:51
	movq	16(%rsp), %rdx
	.loc	5 287 14                        # stencils.cpp:287:14
	movq	%r14, %rdi
	callq	hipEventElapsedTime
.Ltmp554:
	.loc	5 287 57                        # stencils.cpp:287:57
	testl	%eax, %eax
.Ltmp555:
	.loc	5 287 14                        # stencils.cpp:287:14
	jne	.LBB9_169
.Ltmp556:
# %bb.103:                              #   in Loop: Header=BB9_98 Depth=1
	#DEBUG_VALUE: main:argc <- [DW_OP_LLVM_entry_value 1] $edi
	#DEBUG_VALUE: main:argv <- [DW_OP_LLVM_entry_value 1] $rsi
	#DEBUG_VALUE: main:R <- 4
	#DEBUG_VALUE: main:h <- 1.000000e+00
	#DEBUG_VALUE: main:mx <- [DW_OP_plus_uconst 48, DW_OP_deref] $rsp
	#DEBUG_VALUE: main:line <- [DW_OP_plus_uconst 48, DW_OP_deref] $rsp
	#DEBUG_VALUE: main:slice <- [DW_OP_plus_uconst 56, DW_OP_deref] $rsp
	#DEBUG_VALUE: main:offset <- [DW_OP_plus_uconst 216, DW_OP_deref] $rsp
	#DEBUG_VALUE: main:a <- [DW_OP_LLVM_fragment 64 32] 1.000000e+00
	#DEBUG_VALUE: main:s <- [DW_OP_LLVM_fragment 64 32] 1.000000e+00
	#DEBUG_VALUE: main:theoretical_write <- [DW_OP_plus_uconst 120, DW_OP_deref_size 16, DW_OP_stack_value] $rsp
	#DEBUG_VALUE: main:total_bytes_x <- [DW_OP_plus_uconst 224, DW_OP_deref_size 16, DW_OP_stack_value] $rsp
	#DEBUG_VALUE: main:total_elapsed <- [DW_OP_plus_uconst 8, DW_OP_deref] $rsp
	#DEBUG_VALUE: i <- [DW_OP_LLVM_arg 0, DW_OP_LLVM_arg 1, DW_OP_plus_uconst 52, DW_OP_deref, DW_OP_minus, DW_OP_consts 18446744073709551615, DW_OP_div, DW_OP_stack_value] $r13d, $rsp
	.loc	5 0 14                          # stencils.cpp:0:14
	movss	8(%rsp), %xmm0                  # 4-byte Reload
                                        # xmm0 = mem[0],zero,zero,zero
	.loc	5 288 23 is_stmt 1              # stencils.cpp:288:23
	addss	28(%rsp), %xmm0
.Ltmp557:
	#DEBUG_VALUE: main:total_elapsed <- $xmm0
	#DEBUG_VALUE: i <- [DW_OP_LLVM_arg 0, DW_OP_LLVM_arg 1, DW_OP_plus_uconst 52, DW_OP_deref, DW_OP_minus, DW_OP_consts 18446744073709551615, DW_OP_div, DW_OP_consts 1, DW_OP_plus, DW_OP_stack_value] $r13d, $rsp
	.loc	5 0 23 is_stmt 0                # stencils.cpp:0:23
	movss	%xmm0, 8(%rsp)                  # 4-byte Spill
.Ltmp558:
	#DEBUG_VALUE: main:total_elapsed <- [DW_OP_plus_uconst 8, DW_OP_deref_size 16, DW_OP_stack_value] $rsp
	.loc	5 281 23 is_stmt 1              # stencils.cpp:281:23
	decl	%r13d
.Ltmp559:
	.loc	5 281 5 is_stmt 0               # stencils.cpp:281:5
	jne	.LBB9_98
	jmp	.LBB9_105
.Ltmp560:
.LBB9_104:
	#DEBUG_VALUE: main:argc <- [DW_OP_LLVM_entry_value 1] $edi
	#DEBUG_VALUE: main:argv <- [DW_OP_LLVM_entry_value 1] $rsi
	#DEBUG_VALUE: main:R <- 4
	#DEBUG_VALUE: main:h <- 1.000000e+00
	#DEBUG_VALUE: main:mx <- [DW_OP_plus_uconst 48, DW_OP_deref] $rsp
	#DEBUG_VALUE: main:line <- [DW_OP_plus_uconst 48, DW_OP_deref] $rsp
	#DEBUG_VALUE: main:slice <- [DW_OP_plus_uconst 56, DW_OP_deref] $rsp
	#DEBUG_VALUE: main:offset <- [DW_OP_plus_uconst 216, DW_OP_deref] $rsp
	#DEBUG_VALUE: main:a <- [DW_OP_LLVM_fragment 64 32] 1.000000e+00
	#DEBUG_VALUE: main:s <- [DW_OP_LLVM_fragment 64 32] 1.000000e+00
	#DEBUG_VALUE: main:theoretical_write <- [DW_OP_plus_uconst 120, DW_OP_deref_size 16, DW_OP_stack_value] $rsp
	#DEBUG_VALUE: main:total_bytes_x <- [DW_OP_plus_uconst 224, DW_OP_deref_size 16, DW_OP_stack_value] $rsp
	#DEBUG_VALUE: main:total_elapsed <- 0.000000e+00
	#DEBUG_VALUE: i <- 0
	.loc	5 0 5                           # stencils.cpp:0:5
	movss	%xmm0, 8(%rsp)                  # 4-byte Spill
.Ltmp561:
.LBB9_105:                              # %._crit_edge589
	#DEBUG_VALUE: main:argc <- [DW_OP_LLVM_entry_value 1] $edi
	#DEBUG_VALUE: main:argv <- [DW_OP_LLVM_entry_value 1] $rsi
	#DEBUG_VALUE: main:R <- 4
	#DEBUG_VALUE: main:h <- 1.000000e+00
	#DEBUG_VALUE: main:mx <- [DW_OP_plus_uconst 48, DW_OP_deref] $rsp
	#DEBUG_VALUE: main:line <- [DW_OP_plus_uconst 48, DW_OP_deref] $rsp
	#DEBUG_VALUE: main:slice <- [DW_OP_plus_uconst 56, DW_OP_deref] $rsp
	#DEBUG_VALUE: main:offset <- [DW_OP_plus_uconst 216, DW_OP_deref] $rsp
	#DEBUG_VALUE: main:a <- [DW_OP_LLVM_fragment 64 32] 1.000000e+00
	#DEBUG_VALUE: main:s <- [DW_OP_LLVM_fragment 64 32] 1.000000e+00
	#DEBUG_VALUE: main:theoretical_write <- [DW_OP_plus_uconst 120, DW_OP_deref_size 16, DW_OP_stack_value] $rsp
	#DEBUG_VALUE: main:total_bytes_x <- [DW_OP_plus_uconst 224, DW_OP_deref_size 16, DW_OP_stack_value] $rsp
	.loc	5 290 29 is_stmt 1              # stencils.cpp:290:29
	movq	32(%rsp), %rdi
	.loc	5 290 38 is_stmt 0              # stencils.cpp:290:38
	movq	72(%rsp), %rsi
	.loc	5 290 14                        # stencils.cpp:290:14
	subq	$8, %rsp
.Ltmp562:
	.cfi_adjust_cfa_offset 8
	.loc	5 0 14                          # stencils.cpp:0:14
	movl	56(%rsp), %edx                  # 4-byte Reload
	movq	64(%rsp), %rcx                  # 8-byte Reload
                                        # kill: def $ecx killed $ecx killed $rcx
	.loc	5 290 14                        # stencils.cpp:290:14
	movl	$4, %r8d
	movl	%ebx, %r9d
	pushq	$-1
	.cfi_adjust_cfa_offset 8
	pushq	%r15
	.cfi_adjust_cfa_offset 8
	pushq	$4
	.cfi_adjust_cfa_offset 8
	pushq	%rbp
	.cfi_adjust_cfa_offset 8
	pushq	$4
	.cfi_adjust_cfa_offset 8
	callq	_Z14max_absval_gpuPfPKfiiiiiiiii
.Ltmp563:
	#DEBUG_VALUE: main:maxval <- $xmm0
	addq	$48, %rsp
	.cfi_adjust_cfa_offset -48
	.loc	5 291 62 is_stmt 1              # stencils.cpp:291:62
	cvtss2sd	%xmm0, %xmm0
.Ltmp564:
	.loc	5 291 5 is_stmt 0               # stencils.cpp:291:5
	movl	$.L.str.13, %edi
	movb	$1, %al
	callq	printf
.Ltmp565:
	.loc	5 0 5                           # stencils.cpp:0:5
	movss	8(%rsp), %xmm0                  # 4-byte Reload
                                        # xmm0 = mem[0],zero,zero,zero
	.loc	5 292 60 is_stmt 1              # stencils.cpp:292:60
	divss	68(%rsp), %xmm0                 # 4-byte Folded Reload
	.loc	5 292 46 is_stmt 0              # stencils.cpp:292:46
	cvtss2sd	%xmm0, %xmm0
	.loc	5 292 5                         # stencils.cpp:292:5
	movl	$.L.str.14, %edi
	movb	$1, %al
	callq	printf
.Ltmp566:
	.loc	5 0 5                           # stencils.cpp:0:5
	movss	8(%rsp), %xmm0                  # 4-byte Reload
                                        # xmm0 = mem[0],zero,zero,zero
	.loc	5 293 75 is_stmt 1              # stencils.cpp:293:75
	xorps	%xmm1, %xmm1
	cvtss2sd	%xmm0, %xmm1
	movsd	88(%rsp), %xmm0                 # 8-byte Reload
                                        # xmm0 = mem[0],zero
	.loc	5 293 73 is_stmt 0              # stencils.cpp:293:73
	divsd	%xmm1, %xmm0
	.loc	5 293 89                        # stencils.cpp:293:89
	divsd	.LCPI9_5(%rip), %xmm0
	.loc	5 293 5                         # stencils.cpp:293:5
	movl	$.L.str.15, %edi
	movb	$1, %al
	callq	printf
.Ltmp567:
	.loc	5 297 5 is_stmt 1               # stencils.cpp:297:5
	movl	$.Lstr.8, %edi
	callq	puts@PLT
.Ltmp568:
	.loc	5 300 20                        # stencils.cpp:300:20
	movq	32(%rsp), %rdi
	.loc	5 300 10 is_stmt 0              # stencils.cpp:300:10
	xorl	%esi, %esi
	movq	96(%rsp), %r14                  # 8-byte Reload
	movq	%r14, %rdx
	callq	hipMemset
.Ltmp569:
	.loc	5 300 51                        # stencils.cpp:300:51
	testl	%eax, %eax
.Ltmp570:
	.loc	5 300 10                        # stencils.cpp:300:10
	jne	.LBB9_195
.Ltmp571:
# %bb.106:                              # %.preheader495
	#DEBUG_VALUE: main:argc <- [DW_OP_LLVM_entry_value 1] $edi
	#DEBUG_VALUE: main:argv <- [DW_OP_LLVM_entry_value 1] $rsi
	#DEBUG_VALUE: main:R <- 4
	#DEBUG_VALUE: main:h <- 1.000000e+00
	#DEBUG_VALUE: main:mx <- [DW_OP_plus_uconst 48, DW_OP_deref] $rsp
	#DEBUG_VALUE: main:line <- [DW_OP_plus_uconst 48, DW_OP_deref] $rsp
	#DEBUG_VALUE: main:slice <- [DW_OP_plus_uconst 56, DW_OP_deref] $rsp
	#DEBUG_VALUE: main:offset <- [DW_OP_plus_uconst 216, DW_OP_deref] $rsp
	#DEBUG_VALUE: main:a <- [DW_OP_LLVM_fragment 64 32] 1.000000e+00
	#DEBUG_VALUE: main:s <- [DW_OP_LLVM_fragment 64 32] 1.000000e+00
	#DEBUG_VALUE: main:theoretical_write <- [DW_OP_plus_uconst 120, DW_OP_deref_size 16, DW_OP_stack_value] $rsp
	#DEBUG_VALUE: main:total_bytes_x <- [DW_OP_plus_uconst 224, DW_OP_deref_size 16, DW_OP_stack_value] $rsp
	.loc	5 0 10                          # stencils.cpp:0:10
	movl	52(%rsp), %r13d                 # 4-byte Reload
	xorpd	%xmm0, %xmm0
.Ltmp572:
	.loc	5 145 23 is_stmt 1              # stencils.cpp:145:23
	testl	%r13d, %r13d
.Ltmp573:
	#DEBUG_VALUE: i <- 0
	#DEBUG_VALUE: main:total_elapsed <- 0.000000e+00
	.loc	5 302 5                         # stencils.cpp:302:5
	jle	.LBB9_114
.Ltmp574:
# %bb.107:                              # %.lr.ph593.preheader
	#DEBUG_VALUE: main:argc <- [DW_OP_LLVM_entry_value 1] $edi
	#DEBUG_VALUE: main:argv <- [DW_OP_LLVM_entry_value 1] $rsi
	#DEBUG_VALUE: main:R <- 4
	#DEBUG_VALUE: main:h <- 1.000000e+00
	#DEBUG_VALUE: main:mx <- [DW_OP_plus_uconst 48, DW_OP_deref] $rsp
	#DEBUG_VALUE: main:line <- [DW_OP_plus_uconst 48, DW_OP_deref] $rsp
	#DEBUG_VALUE: main:slice <- [DW_OP_plus_uconst 56, DW_OP_deref] $rsp
	#DEBUG_VALUE: main:offset <- [DW_OP_plus_uconst 216, DW_OP_deref] $rsp
	#DEBUG_VALUE: main:a <- [DW_OP_LLVM_fragment 64 32] 1.000000e+00
	#DEBUG_VALUE: main:s <- [DW_OP_LLVM_fragment 64 32] 1.000000e+00
	#DEBUG_VALUE: main:theoretical_write <- [DW_OP_plus_uconst 120, DW_OP_deref_size 16, DW_OP_stack_value] $rsp
	#DEBUG_VALUE: main:total_bytes_x <- [DW_OP_plus_uconst 224, DW_OP_deref_size 16, DW_OP_stack_value] $rsp
	#DEBUG_VALUE: main:total_elapsed <- 0.000000e+00
	#DEBUG_VALUE: i <- 0
	.loc	5 0 5 is_stmt 0                 # stencils.cpp:0:5
	movss	%xmm0, 8(%rsp)                  # 4-byte Spill
	leaq	160(%rsp), %r14
	leaq	28(%rsp), %r12
.Ltmp575:
	.p2align	4, 0x90
.LBB9_108:                              # %.lr.ph593
                                        # =>This Inner Loop Header: Depth=1
	#DEBUG_VALUE: main:argc <- [DW_OP_LLVM_entry_value 1] $edi
	#DEBUG_VALUE: main:argv <- [DW_OP_LLVM_entry_value 1] $rsi
	#DEBUG_VALUE: main:R <- 4
	#DEBUG_VALUE: main:h <- 1.000000e+00
	#DEBUG_VALUE: main:mx <- [DW_OP_plus_uconst 48, DW_OP_deref] $rsp
	#DEBUG_VALUE: main:line <- [DW_OP_plus_uconst 48, DW_OP_deref] $rsp
	#DEBUG_VALUE: main:slice <- [DW_OP_plus_uconst 56, DW_OP_deref] $rsp
	#DEBUG_VALUE: main:offset <- [DW_OP_plus_uconst 216, DW_OP_deref] $rsp
	#DEBUG_VALUE: main:a <- [DW_OP_LLVM_fragment 64 32] 1.000000e+00
	#DEBUG_VALUE: main:s <- [DW_OP_LLVM_fragment 64 32] 1.000000e+00
	#DEBUG_VALUE: main:theoretical_write <- [DW_OP_plus_uconst 120, DW_OP_deref_size 16, DW_OP_stack_value] $rsp
	#DEBUG_VALUE: main:total_bytes_x <- [DW_OP_plus_uconst 224, DW_OP_deref_size 16, DW_OP_stack_value] $rsp
	#DEBUG_VALUE: i <- [DW_OP_LLVM_arg 0, DW_OP_LLVM_arg 1, DW_OP_plus_uconst 52, DW_OP_deref, DW_OP_minus, DW_OP_consts 18446744073709551615, DW_OP_div, DW_OP_stack_value] $r13d, $rsp
	#DEBUG_VALUE: main:total_elapsed <- [DW_OP_plus_uconst 8, DW_OP_deref] $rsp
	.loc	5 303 14 is_stmt 1              # stencils.cpp:303:14
	callq	hipDeviceSynchronize
.Ltmp576:
	.loc	5 303 37 is_stmt 0              # stencils.cpp:303:37
	testl	%eax, %eax
.Ltmp577:
	.loc	5 303 14                        # stencils.cpp:303:14
	jne	.LBB9_170
.Ltmp578:
# %bb.109:                              #   in Loop: Header=BB9_108 Depth=1
	#DEBUG_VALUE: main:argc <- [DW_OP_LLVM_entry_value 1] $edi
	#DEBUG_VALUE: main:argv <- [DW_OP_LLVM_entry_value 1] $rsi
	#DEBUG_VALUE: main:R <- 4
	#DEBUG_VALUE: main:h <- 1.000000e+00
	#DEBUG_VALUE: main:mx <- [DW_OP_plus_uconst 48, DW_OP_deref] $rsp
	#DEBUG_VALUE: main:line <- [DW_OP_plus_uconst 48, DW_OP_deref] $rsp
	#DEBUG_VALUE: main:slice <- [DW_OP_plus_uconst 56, DW_OP_deref] $rsp
	#DEBUG_VALUE: main:offset <- [DW_OP_plus_uconst 216, DW_OP_deref] $rsp
	#DEBUG_VALUE: main:a <- [DW_OP_LLVM_fragment 64 32] 1.000000e+00
	#DEBUG_VALUE: main:s <- [DW_OP_LLVM_fragment 64 32] 1.000000e+00
	#DEBUG_VALUE: main:theoretical_write <- [DW_OP_plus_uconst 120, DW_OP_deref_size 16, DW_OP_stack_value] $rsp
	#DEBUG_VALUE: main:total_bytes_x <- [DW_OP_plus_uconst 224, DW_OP_deref_size 16, DW_OP_stack_value] $rsp
	#DEBUG_VALUE: main:total_elapsed <- [DW_OP_plus_uconst 8, DW_OP_deref] $rsp
	#DEBUG_VALUE: i <- [DW_OP_LLVM_arg 0, DW_OP_LLVM_arg 1, DW_OP_plus_uconst 52, DW_OP_deref, DW_OP_minus, DW_OP_consts 18446744073709551615, DW_OP_div, DW_OP_stack_value] $r13d, $rsp
	.loc	5 304 29 is_stmt 1              # stencils.cpp:304:29
	movq	40(%rsp), %rdi
	.loc	5 304 14 is_stmt 0              # stencils.cpp:304:14
	xorl	%esi, %esi
	callq	hipEventRecord
.Ltmp579:
	.loc	5 304 36                        # stencils.cpp:304:36
	testl	%eax, %eax
.Ltmp580:
	.loc	5 304 14                        # stencils.cpp:304:14
	jne	.LBB9_171
.Ltmp581:
# %bb.110:                              #   in Loop: Header=BB9_108 Depth=1
	#DEBUG_VALUE: main:argc <- [DW_OP_LLVM_entry_value 1] $edi
	#DEBUG_VALUE: main:argv <- [DW_OP_LLVM_entry_value 1] $rsi
	#DEBUG_VALUE: main:R <- 4
	#DEBUG_VALUE: main:h <- 1.000000e+00
	#DEBUG_VALUE: main:mx <- [DW_OP_plus_uconst 48, DW_OP_deref] $rsp
	#DEBUG_VALUE: main:line <- [DW_OP_plus_uconst 48, DW_OP_deref] $rsp
	#DEBUG_VALUE: main:slice <- [DW_OP_plus_uconst 56, DW_OP_deref] $rsp
	#DEBUG_VALUE: main:offset <- [DW_OP_plus_uconst 216, DW_OP_deref] $rsp
	#DEBUG_VALUE: main:a <- [DW_OP_LLVM_fragment 64 32] 1.000000e+00
	#DEBUG_VALUE: main:s <- [DW_OP_LLVM_fragment 64 32] 1.000000e+00
	#DEBUG_VALUE: main:theoretical_write <- [DW_OP_plus_uconst 120, DW_OP_deref_size 16, DW_OP_stack_value] $rsp
	#DEBUG_VALUE: main:total_bytes_x <- [DW_OP_plus_uconst 224, DW_OP_deref_size 16, DW_OP_stack_value] $rsp
	#DEBUG_VALUE: main:total_elapsed <- [DW_OP_plus_uconst 8, DW_OP_deref] $rsp
	#DEBUG_VALUE: i <- [DW_OP_LLVM_arg 0, DW_OP_LLVM_arg 1, DW_OP_plus_uconst 52, DW_OP_deref, DW_OP_minus, DW_OP_consts 18446744073709551615, DW_OP_div, DW_OP_stack_value] $r13d, $rsp
	.loc	5 305 34 is_stmt 1              # stencils.cpp:305:34
	movq	32(%rsp), %rdi
	.loc	5 305 43 is_stmt 0              # stencils.cpp:305:43
	movq	80(%rsp), %rsi
	.loc	5 305 9                         # stencils.cpp:305:9
	subq	$8, %rsp
.Ltmp582:
	.cfi_adjust_cfa_offset 8
	movq	%r14, %rdx
	movl	56(%rsp), %ecx                  # 4-byte Reload
	movq	64(%rsp), %r8                   # 8-byte Reload
                                        # kill: def $r8d killed $r8d killed $r8
	movl	$4, %r9d
	pushq	%r15
	.cfi_adjust_cfa_offset 8
	pushq	$4
	.cfi_adjust_cfa_offset 8
	pushq	%rbp
	.cfi_adjust_cfa_offset 8
	pushq	$4
	.cfi_adjust_cfa_offset 8
	pushq	%rbx
	.cfi_adjust_cfa_offset 8
	callq	_Z21compute_fd_xy_lds_vecILi4EEvPfPKfS2_iiiiiiii
.Ltmp583:
	addq	$48, %rsp
	.cfi_adjust_cfa_offset -48
.Ltmp584:
	.loc	5 306 29 is_stmt 1              # stencils.cpp:306:29
	movq	16(%rsp), %rdi
	.loc	5 306 14 is_stmt 0              # stencils.cpp:306:14
	xorl	%esi, %esi
	callq	hipEventRecord
.Ltmp585:
	.loc	5 306 35                        # stencils.cpp:306:35
	testl	%eax, %eax
.Ltmp586:
	.loc	5 306 14                        # stencils.cpp:306:14
	jne	.LBB9_172
.Ltmp587:
# %bb.111:                              #   in Loop: Header=BB9_108 Depth=1
	#DEBUG_VALUE: main:argc <- [DW_OP_LLVM_entry_value 1] $edi
	#DEBUG_VALUE: main:argv <- [DW_OP_LLVM_entry_value 1] $rsi
	#DEBUG_VALUE: main:R <- 4
	#DEBUG_VALUE: main:h <- 1.000000e+00
	#DEBUG_VALUE: main:mx <- [DW_OP_plus_uconst 48, DW_OP_deref] $rsp
	#DEBUG_VALUE: main:line <- [DW_OP_plus_uconst 48, DW_OP_deref] $rsp
	#DEBUG_VALUE: main:slice <- [DW_OP_plus_uconst 56, DW_OP_deref] $rsp
	#DEBUG_VALUE: main:offset <- [DW_OP_plus_uconst 216, DW_OP_deref] $rsp
	#DEBUG_VALUE: main:a <- [DW_OP_LLVM_fragment 64 32] 1.000000e+00
	#DEBUG_VALUE: main:s <- [DW_OP_LLVM_fragment 64 32] 1.000000e+00
	#DEBUG_VALUE: main:theoretical_write <- [DW_OP_plus_uconst 120, DW_OP_deref_size 16, DW_OP_stack_value] $rsp
	#DEBUG_VALUE: main:total_bytes_x <- [DW_OP_plus_uconst 224, DW_OP_deref_size 16, DW_OP_stack_value] $rsp
	#DEBUG_VALUE: main:total_elapsed <- [DW_OP_plus_uconst 8, DW_OP_deref] $rsp
	#DEBUG_VALUE: i <- [DW_OP_LLVM_arg 0, DW_OP_LLVM_arg 1, DW_OP_plus_uconst 52, DW_OP_deref, DW_OP_minus, DW_OP_consts 18446744073709551615, DW_OP_div, DW_OP_stack_value] $r13d, $rsp
	.loc	5 307 34 is_stmt 1              # stencils.cpp:307:34
	movq	16(%rsp), %rdi
	.loc	5 307 14 is_stmt 0              # stencils.cpp:307:14
	callq	hipEventSynchronize
.Ltmp588:
	.loc	5 307 40                        # stencils.cpp:307:40
	testl	%eax, %eax
.Ltmp589:
	.loc	5 307 14                        # stencils.cpp:307:14
	jne	.LBB9_173
.Ltmp590:
# %bb.112:                              #   in Loop: Header=BB9_108 Depth=1
	#DEBUG_VALUE: main:argc <- [DW_OP_LLVM_entry_value 1] $edi
	#DEBUG_VALUE: main:argv <- [DW_OP_LLVM_entry_value 1] $rsi
	#DEBUG_VALUE: main:R <- 4
	#DEBUG_VALUE: main:h <- 1.000000e+00
	#DEBUG_VALUE: main:mx <- [DW_OP_plus_uconst 48, DW_OP_deref] $rsp
	#DEBUG_VALUE: main:line <- [DW_OP_plus_uconst 48, DW_OP_deref] $rsp
	#DEBUG_VALUE: main:slice <- [DW_OP_plus_uconst 56, DW_OP_deref] $rsp
	#DEBUG_VALUE: main:offset <- [DW_OP_plus_uconst 216, DW_OP_deref] $rsp
	#DEBUG_VALUE: main:a <- [DW_OP_LLVM_fragment 64 32] 1.000000e+00
	#DEBUG_VALUE: main:s <- [DW_OP_LLVM_fragment 64 32] 1.000000e+00
	#DEBUG_VALUE: main:theoretical_write <- [DW_OP_plus_uconst 120, DW_OP_deref_size 16, DW_OP_stack_value] $rsp
	#DEBUG_VALUE: main:total_bytes_x <- [DW_OP_plus_uconst 224, DW_OP_deref_size 16, DW_OP_stack_value] $rsp
	#DEBUG_VALUE: main:total_elapsed <- [DW_OP_plus_uconst 8, DW_OP_deref] $rsp
	#DEBUG_VALUE: i <- [DW_OP_LLVM_arg 0, DW_OP_LLVM_arg 1, DW_OP_plus_uconst 52, DW_OP_deref, DW_OP_minus, DW_OP_consts 18446744073709551615, DW_OP_div, DW_OP_stack_value] $r13d, $rsp
	.loc	5 308 44 is_stmt 1              # stencils.cpp:308:44
	movq	40(%rsp), %rsi
	.loc	5 308 51 is_stmt 0              # stencils.cpp:308:51
	movq	16(%rsp), %rdx
	.loc	5 308 14                        # stencils.cpp:308:14
	movq	%r12, %rdi
	callq	hipEventElapsedTime
.Ltmp591:
	.loc	5 308 57                        # stencils.cpp:308:57
	testl	%eax, %eax
.Ltmp592:
	.loc	5 308 14                        # stencils.cpp:308:14
	jne	.LBB9_174
.Ltmp593:
# %bb.113:                              #   in Loop: Header=BB9_108 Depth=1
	#DEBUG_VALUE: main:argc <- [DW_OP_LLVM_entry_value 1] $edi
	#DEBUG_VALUE: main:argv <- [DW_OP_LLVM_entry_value 1] $rsi
	#DEBUG_VALUE: main:R <- 4
	#DEBUG_VALUE: main:h <- 1.000000e+00
	#DEBUG_VALUE: main:mx <- [DW_OP_plus_uconst 48, DW_OP_deref] $rsp
	#DEBUG_VALUE: main:line <- [DW_OP_plus_uconst 48, DW_OP_deref] $rsp
	#DEBUG_VALUE: main:slice <- [DW_OP_plus_uconst 56, DW_OP_deref] $rsp
	#DEBUG_VALUE: main:offset <- [DW_OP_plus_uconst 216, DW_OP_deref] $rsp
	#DEBUG_VALUE: main:a <- [DW_OP_LLVM_fragment 64 32] 1.000000e+00
	#DEBUG_VALUE: main:s <- [DW_OP_LLVM_fragment 64 32] 1.000000e+00
	#DEBUG_VALUE: main:theoretical_write <- [DW_OP_plus_uconst 120, DW_OP_deref_size 16, DW_OP_stack_value] $rsp
	#DEBUG_VALUE: main:total_bytes_x <- [DW_OP_plus_uconst 224, DW_OP_deref_size 16, DW_OP_stack_value] $rsp
	#DEBUG_VALUE: main:total_elapsed <- [DW_OP_plus_uconst 8, DW_OP_deref] $rsp
	#DEBUG_VALUE: i <- [DW_OP_LLVM_arg 0, DW_OP_LLVM_arg 1, DW_OP_plus_uconst 52, DW_OP_deref, DW_OP_minus, DW_OP_consts 18446744073709551615, DW_OP_div, DW_OP_stack_value] $r13d, $rsp
	.loc	5 0 14                          # stencils.cpp:0:14
	movss	8(%rsp), %xmm0                  # 4-byte Reload
                                        # xmm0 = mem[0],zero,zero,zero
	.loc	5 309 23 is_stmt 1              # stencils.cpp:309:23
	addss	28(%rsp), %xmm0
.Ltmp594:
	#DEBUG_VALUE: main:total_elapsed <- $xmm0
	#DEBUG_VALUE: i <- [DW_OP_LLVM_arg 0, DW_OP_LLVM_arg 1, DW_OP_plus_uconst 52, DW_OP_deref, DW_OP_minus, DW_OP_consts 18446744073709551615, DW_OP_div, DW_OP_consts 1, DW_OP_plus, DW_OP_stack_value] $r13d, $rsp
	.loc	5 0 23 is_stmt 0                # stencils.cpp:0:23
	movss	%xmm0, 8(%rsp)                  # 4-byte Spill
.Ltmp595:
	#DEBUG_VALUE: main:total_elapsed <- [DW_OP_plus_uconst 8, DW_OP_deref_size 16, DW_OP_stack_value] $rsp
	.loc	5 302 23 is_stmt 1              # stencils.cpp:302:23
	decl	%r13d
.Ltmp596:
	.loc	5 302 5 is_stmt 0               # stencils.cpp:302:5
	jne	.LBB9_108
	jmp	.LBB9_115
.Ltmp597:
.LBB9_114:
	#DEBUG_VALUE: main:argc <- [DW_OP_LLVM_entry_value 1] $edi
	#DEBUG_VALUE: main:argv <- [DW_OP_LLVM_entry_value 1] $rsi
	#DEBUG_VALUE: main:R <- 4
	#DEBUG_VALUE: main:h <- 1.000000e+00
	#DEBUG_VALUE: main:mx <- [DW_OP_plus_uconst 48, DW_OP_deref] $rsp
	#DEBUG_VALUE: main:line <- [DW_OP_plus_uconst 48, DW_OP_deref] $rsp
	#DEBUG_VALUE: main:slice <- [DW_OP_plus_uconst 56, DW_OP_deref] $rsp
	#DEBUG_VALUE: main:offset <- [DW_OP_plus_uconst 216, DW_OP_deref] $rsp
	#DEBUG_VALUE: main:a <- [DW_OP_LLVM_fragment 64 32] 1.000000e+00
	#DEBUG_VALUE: main:s <- [DW_OP_LLVM_fragment 64 32] 1.000000e+00
	#DEBUG_VALUE: main:theoretical_write <- [DW_OP_plus_uconst 120, DW_OP_deref_size 16, DW_OP_stack_value] $rsp
	#DEBUG_VALUE: main:total_bytes_x <- [DW_OP_plus_uconst 224, DW_OP_deref_size 16, DW_OP_stack_value] $rsp
	#DEBUG_VALUE: main:total_elapsed <- 0.000000e+00
	#DEBUG_VALUE: i <- 0
	.loc	5 0 5                           # stencils.cpp:0:5
	movss	%xmm0, 8(%rsp)                  # 4-byte Spill
.Ltmp598:
.LBB9_115:                              # %._crit_edge594
	#DEBUG_VALUE: main:argc <- [DW_OP_LLVM_entry_value 1] $edi
	#DEBUG_VALUE: main:argv <- [DW_OP_LLVM_entry_value 1] $rsi
	#DEBUG_VALUE: main:R <- 4
	#DEBUG_VALUE: main:h <- 1.000000e+00
	#DEBUG_VALUE: main:mx <- [DW_OP_plus_uconst 48, DW_OP_deref] $rsp
	#DEBUG_VALUE: main:line <- [DW_OP_plus_uconst 48, DW_OP_deref] $rsp
	#DEBUG_VALUE: main:slice <- [DW_OP_plus_uconst 56, DW_OP_deref] $rsp
	#DEBUG_VALUE: main:offset <- [DW_OP_plus_uconst 216, DW_OP_deref] $rsp
	#DEBUG_VALUE: main:a <- [DW_OP_LLVM_fragment 64 32] 1.000000e+00
	#DEBUG_VALUE: main:s <- [DW_OP_LLVM_fragment 64 32] 1.000000e+00
	#DEBUG_VALUE: main:theoretical_write <- [DW_OP_plus_uconst 120, DW_OP_deref_size 16, DW_OP_stack_value] $rsp
	#DEBUG_VALUE: main:total_bytes_x <- [DW_OP_plus_uconst 224, DW_OP_deref_size 16, DW_OP_stack_value] $rsp
	movq	104(%rsp), %r13                 # 8-byte Reload
	addl	136(%rsp), %r13d                # 4-byte Folded Reload
	imull	152(%rsp), %r13d                # 4-byte Folded Reload
	movq	144(%rsp), %rax                 # 8-byte Reload
	leal	(%rax,%r13,8), %eax
	xorps	%xmm0, %xmm0
	cvtsi2sd	%eax, %xmm0
.Ltmp599:
	#DEBUG_VALUE: main:theoretical_fetch_xy <- $xmm0
	addsd	120(%rsp), %xmm0                # 8-byte Folded Reload
